; ModuleID = '/ise_local2/umair_temp/vivado_projects/cvtColor/cvt_prj/solution2/.autopilot/db/a.o.2.bc'
target datalayout = "e-p:64:64:64-i1:8:8-i8:8:8-i16:16:16-i32:32:32-i64:64:64-f32:32:32-f64:64:64-v64:64:64-v128:128:128-a0:0:64-s0:64:64-f80:128:128-n8:16:32:64"
target triple = "x86_64-unknown-linux-gnu"

%0 = type { i32, i4, i4, i1, i1, i1, i1 }
%"hls::Mat<1080, 1920, 16>::init.1_ret" = type { i12, i12 }
%"hls::Mat<1080, 1920, 16>::init_ret" = type { i12, i12, i12, i12 }
%"struct.ap_axiu<32,1,1,1>" = type { %"struct.ap_fixed<32,11,SC_RND,SC_WRAP,0>", %"struct.ap_uint<4>", %"struct.ap_uint<4>", %"struct.ap_uint<1>", %"struct.ap_uint<1>", %"struct.ap_uint<1>", %"struct.ap_uint<1>" }
%"struct.ap_fixed<12,12,SC_RND,SC_WRAP,0>" = type { %"struct.ap_fixed_base<12,12,true,SC_RND,SC_WRAP,0>" }
%"struct.ap_fixed<32,11,SC_RND,SC_WRAP,0>" = type { %"struct.ap_fixed_base<32,11,true,SC_RND,SC_WRAP,0>" }
%"struct.ap_fixed_base<12,12,true,SC_RND,SC_WRAP,0>" = type { %"struct.ssdm_int<12,false>" }
%"struct.ap_fixed_base<32,11,true,SC_RND,SC_WRAP,0>" = type { %"struct.ssdm_int<32,false>" }
%"struct.ap_int_base<1,false,true>" = type { %"struct.ssdm_int<1,false>" }
%"struct.ap_int_base<4,false,true>" = type { %"struct.ssdm_int<4,false>" }
%"struct.ap_uint<1>" = type { %"struct.ap_int_base<1,false,true>" }
%"struct.ap_uint<4>" = type { %"struct.ap_int_base<4,false,true>" }
%"struct.hls::Mat<1080,1920,16>" = type { %"struct.ap_fixed<12,12,SC_RND,SC_WRAP,0>", %"struct.ap_fixed<12,12,SC_RND,SC_WRAP,0>", [3 x %"struct.hls::stream<unsigned char>"] }
%"struct.hls::filter2d_kernel" = type <{ i8 }>
%"struct.hls::stream<ap_axiu<32, 1, 1, 1> >" = type { %"struct.ap_axiu<32,1,1,1>" }
%"struct.hls::stream<unsigned char>" = type { i8 }
%"struct.ssdm_int<1,false>" = type { i1 }
%"struct.ssdm_int<12,false>" = type { i12 }
%"struct.ssdm_int<32,false>" = type { i32 }
%"struct.ssdm_int<4,false>" = type { i4 }

@p_str20 = private constant [1 x i8] zeroinitializer, align 1 ; <[1 x i8]*> [#uses=58]
@p_str25 = private constant [13 x i8] c"hls_label_17\00", align 1 ; <[13 x i8]*> [#uses=2]
@p_str26 = private constant [13 x i8] c"hls_label_18\00", align 1 ; <[13 x i8]*> [#uses=2]
@p_str27 = private constant [13 x i8] c"hls_label_19\00", align 1 ; <[13 x i8]*> [#uses=2]
@p_str28 = private constant [13 x i8] c"hls_label_20\00", align 1 ; <[13 x i8]*> [#uses=2]
@p_str30 = private constant [13 x i8] c"hls_label_75\00", align 1 ; <[13 x i8]*> [#uses=2]
@p_str31 = private constant [13 x i8] c"hls_label_76\00", align 1 ; <[13 x i8]*> [#uses=2]
@p_str32 = private constant [13 x i8] c"hls_label_21\00", align 1 ; <[13 x i8]*> [#uses=2]
@p_str33 = private constant [13 x i8] c"hls_label_22\00", align 1 ; <[13 x i8]*> [#uses=2]
@p_str34 = private constant [5 x i8] c"AXIS\00", align 1 ; <[5 x i8]*> [#uses=4]
@p_str35 = private constant [25 x i8] c"-bus_bundle INPUT_STREAM\00", align 1 ; <[25 x i8]*> [#uses=2]
@p_str36 = private constant [26 x i8] c"-bus_bundle OUTPUT_STREAM\00", align 1 ; <[26 x i8]*> [#uses=2]
@p_str37 = private constant [10 x i8] c"AXI_SLAVE\00", align 1 ; <[10 x i8]*> [#uses=7]
@p_str38 = private constant [24 x i8] c"-bus_bundle CONTROL_BUS\00", align 1 ; <[24 x i8]*> [#uses=7]
@p_str39 = private constant [10 x i8] c"ap_stable\00", align 1 ; <[10 x i8]*> [#uses=2]
@llvm_global_ctors_0 = appending global [1 x i32] [i32 65535] ; <[1 x i32]*> [#uses=0]
@llvm_global_ctors_1 = appending global [1 x void ()*] [void ()* @_GLOBAL__I__Z5SobelRN3hls3MatILi1080ELi1920ELi16EEES2_ii] ; <[1 x void ()*]*> [#uses=0]
@llvm_global_dtors_0 = appending global [1 x i32] [i32 65535] ; <[1 x i32]*> [#uses=0]
@llvm_global_dtors_1 = appending global [1 x void ()*] [void ()* @_GLOBAL__D__Z5SobelRN3hls3MatILi1080ELi1920ELi16EEES2_ii] ; <[1 x void ()*]*> [#uses=0]
@str = internal constant [8 x i8] c"ap_fifo\00"   ; <[8 x i8]*> [#uses=4]
@str40 = internal constant [8 x i8] c"ap_fifo\00" ; <[8 x i8]*> [#uses=4]
@str41 = internal constant [8 x i8] c"ap_fifo\00" ; <[8 x i8]*> [#uses=4]
@str42 = internal constant [8 x i8] c"ap_fifo\00" ; <[8 x i8]*> [#uses=4]
@str43 = internal constant [8 x i8] c"ap_fifo\00" ; <[8 x i8]*> [#uses=4]
@str44 = internal constant [8 x i8] c"ap_fifo\00" ; <[8 x i8]*> [#uses=4]
@str45 = internal constant [8 x i8] c"ap_fifo\00" ; <[8 x i8]*> [#uses=4]
@str46 = internal constant [8 x i8] c"ap_fifo\00" ; <[8 x i8]*> [#uses=4]
@str47 = internal constant [8 x i8] c"ap_fifo\00" ; <[8 x i8]*> [#uses=4]
@str48 = internal constant [8 x i8] c"ap_fifo\00" ; <[8 x i8]*> [#uses=4]
@str49 = internal constant [8 x i8] c"ap_fifo\00" ; <[8 x i8]*> [#uses=4]
@str50 = internal constant [8 x i8] c"ap_fifo\00" ; <[8 x i8]*> [#uses=4]
@str51 = internal constant [8 x i8] c"ap_fifo\00" ; <[8 x i8]*> [#uses=4]
@str52 = internal constant [8 x i8] c"ap_fifo\00" ; <[8 x i8]*> [#uses=4]
@str61 = internal constant [22 x i8] c"img_0.data_stream.V.0\00" ; <[22 x i8]*> [#uses=1]
@str62 = internal constant [1 x i8] zeroinitializer ; <[1 x i8]*> [#uses=2]
@str63 = internal constant [8 x i8] c"ap_fifo\00" ; <[8 x i8]*> [#uses=6]
@str64 = internal constant [22 x i8] c"img_0.data_stream.V.1\00" ; <[22 x i8]*> [#uses=1]
@str65 = internal constant [1 x i8] zeroinitializer ; <[1 x i8]*> [#uses=2]
@str66 = internal constant [8 x i8] c"ap_fifo\00" ; <[8 x i8]*> [#uses=6]
@str67 = internal constant [22 x i8] c"img_0.data_stream.V.2\00" ; <[22 x i8]*> [#uses=1]
@str68 = internal constant [1 x i8] zeroinitializer ; <[1 x i8]*> [#uses=2]
@str69 = internal constant [8 x i8] c"ap_fifo\00" ; <[8 x i8]*> [#uses=6]
@str70 = internal constant [22 x i8] c"img_1.data_stream.V.0\00" ; <[22 x i8]*> [#uses=1]
@str71 = internal constant [1 x i8] zeroinitializer ; <[1 x i8]*> [#uses=2]
@str72 = internal constant [8 x i8] c"ap_fifo\00" ; <[8 x i8]*> [#uses=6]
@str73 = internal constant [22 x i8] c"img_1.data_stream.V.1\00" ; <[22 x i8]*> [#uses=1]
@str74 = internal constant [1 x i8] zeroinitializer ; <[1 x i8]*> [#uses=2]
@str75 = internal constant [8 x i8] c"ap_fifo\00" ; <[8 x i8]*> [#uses=6]
@str76 = internal constant [22 x i8] c"img_1.data_stream.V.2\00" ; <[22 x i8]*> [#uses=1]
@str77 = internal constant [1 x i8] zeroinitializer ; <[1 x i8]*> [#uses=2]
@str78 = internal constant [8 x i8] c"ap_fifo\00" ; <[8 x i8]*> [#uses=6]

declare void @llvm.dbg.declare(metadata, metadata) nounwind readnone

define weak void @_ssdm_op_SpecPipeline(...) nounwind {
entry:
  ret void
}

define weak void @_ssdm_op_SpecLoopTripCount(...) nounwind {
entry:
  ret void
}

define void @convert_to_gray(i32* %input_V_data_V, i4* %input_V_keep_V, i4* %input_V_strb_V, i1* %input_V_user_V, i1* %input_V_last_V, i1* %input_V_id_V, i1* %input_V_dest_V, i32* %output_V_data_V, i4* %output_V_keep_V, i4* %output_V_strb_V, i1* %output_V_user_V, i1* %output_V_last_V, i1* %output_V_id_V, i1* %output_V_dest_V, i32 %rows, i32 %cols) {
entry:
  call void (...)* @_ssdm_op_SpecDataflowPipeline(i32 -1, [1 x i8]* @p_str20) nounwind
  %empty = call i32 (...)* @_ssdm_op_SpecFifo(i1* %output_V_dest_V, [8 x i8]* @str52, i32 0, i32 0, [8 x i8]* @str52) ; <i32> [#uses=0]
  %empty_24 = call i32 (...)* @_ssdm_op_SpecFifo(i1* %output_V_id_V, [8 x i8]* @str51, i32 0, i32 0, [8 x i8]* @str51) ; <i32> [#uses=0]
  %empty_25 = call i32 (...)* @_ssdm_op_SpecFifo(i1* %output_V_last_V, [8 x i8]* @str50, i32 0, i32 0, [8 x i8]* @str50) ; <i32> [#uses=0]
  %empty_26 = call i32 (...)* @_ssdm_op_SpecFifo(i1* %output_V_user_V, [8 x i8]* @str49, i32 0, i32 0, [8 x i8]* @str49) ; <i32> [#uses=0]
  %empty_27 = call i32 (...)* @_ssdm_op_SpecFifo(i4* %output_V_strb_V, [8 x i8]* @str48, i32 0, i32 0, [8 x i8]* @str48) ; <i32> [#uses=0]
  %empty_28 = call i32 (...)* @_ssdm_op_SpecFifo(i4* %output_V_keep_V, [8 x i8]* @str47, i32 0, i32 0, [8 x i8]* @str47) ; <i32> [#uses=0]
  %empty_29 = call i32 (...)* @_ssdm_op_SpecFifo(i32* %output_V_data_V, [8 x i8]* @str46, i32 0, i32 0, [8 x i8]* @str46) ; <i32> [#uses=0]
  %empty_30 = call i32 (...)* @_ssdm_op_SpecFifo(i1* %input_V_dest_V, [8 x i8]* @str45, i32 0, i32 0, [8 x i8]* @str45) ; <i32> [#uses=0]
  %empty_31 = call i32 (...)* @_ssdm_op_SpecFifo(i1* %input_V_id_V, [8 x i8]* @str44, i32 0, i32 0, [8 x i8]* @str44) ; <i32> [#uses=0]
  %empty_32 = call i32 (...)* @_ssdm_op_SpecFifo(i1* %input_V_last_V, [8 x i8]* @str43, i32 0, i32 0, [8 x i8]* @str43) ; <i32> [#uses=0]
  %empty_33 = call i32 (...)* @_ssdm_op_SpecFifo(i1* %input_V_user_V, [8 x i8]* @str42, i32 0, i32 0, [8 x i8]* @str42) ; <i32> [#uses=0]
  %empty_34 = call i32 (...)* @_ssdm_op_SpecFifo(i4* %input_V_strb_V, [8 x i8]* @str41, i32 0, i32 0, [8 x i8]* @str41) ; <i32> [#uses=0]
  %empty_35 = call i32 (...)* @_ssdm_op_SpecFifo(i4* %input_V_keep_V, [8 x i8]* @str40, i32 0, i32 0, [8 x i8]* @str40) ; <i32> [#uses=0]
  %empty_36 = call i32 (...)* @_ssdm_op_SpecFifo(i32* %input_V_data_V, [8 x i8]* @str, i32 0, i32 0, [8 x i8]* @str) ; <i32> [#uses=0]
  %cols_read = call i32 @_ssdm_op_WireRead.i32(i32 %cols) ; <i32> [#uses=2]
  %rows_read = call i32 @_ssdm_op_WireRead.i32(i32 %rows) ; <i32> [#uses=2]
  %img_0_data_stream_0_V = alloca i8, align 1     ; <i8*> [#uses=5]
  %empty_37 = call i32 (...)* @_ssdm_op_SpecChannel([22 x i8]* @str61, i32 1, [1 x i8]* @str62, [1 x i8]* @str62, i32 1, i32 1, i8* %img_0_data_stream_0_V, i8* %img_0_data_stream_0_V) ; <i32> [#uses=0]
  %empty_38 = call i32 (...)* @_ssdm_op_SpecFifo(i8* %img_0_data_stream_0_V, [8 x i8]* @str63, i32 0, i32 0, [8 x i8]* @str63) ; <i32> [#uses=0]
  %img_0_data_stream_1_V = alloca i8, align 1     ; <i8*> [#uses=5]
  %empty_39 = call i32 (...)* @_ssdm_op_SpecChannel([22 x i8]* @str64, i32 1, [1 x i8]* @str65, [1 x i8]* @str65, i32 1, i32 1, i8* %img_0_data_stream_1_V, i8* %img_0_data_stream_1_V) ; <i32> [#uses=0]
  %empty_40 = call i32 (...)* @_ssdm_op_SpecFifo(i8* %img_0_data_stream_1_V, [8 x i8]* @str66, i32 0, i32 0, [8 x i8]* @str66) ; <i32> [#uses=0]
  %img_0_data_stream_2_V = alloca i8, align 1     ; <i8*> [#uses=5]
  %empty_41 = call i32 (...)* @_ssdm_op_SpecChannel([22 x i8]* @str67, i32 1, [1 x i8]* @str68, [1 x i8]* @str68, i32 1, i32 1, i8* %img_0_data_stream_2_V, i8* %img_0_data_stream_2_V) ; <i32> [#uses=0]
  %empty_42 = call i32 (...)* @_ssdm_op_SpecFifo(i8* %img_0_data_stream_2_V, [8 x i8]* @str69, i32 0, i32 0, [8 x i8]* @str69) ; <i32> [#uses=0]
  %img_1_data_stream_0_V = alloca i8, align 1     ; <i8*> [#uses=5]
  %empty_43 = call i32 (...)* @_ssdm_op_SpecChannel([22 x i8]* @str70, i32 1, [1 x i8]* @str71, [1 x i8]* @str71, i32 1, i32 1, i8* %img_1_data_stream_0_V, i8* %img_1_data_stream_0_V) ; <i32> [#uses=0]
  %empty_44 = call i32 (...)* @_ssdm_op_SpecFifo(i8* %img_1_data_stream_0_V, [8 x i8]* @str72, i32 0, i32 0, [8 x i8]* @str72) ; <i32> [#uses=0]
  %img_1_data_stream_1_V = alloca i8, align 1     ; <i8*> [#uses=5]
  %empty_45 = call i32 (...)* @_ssdm_op_SpecChannel([22 x i8]* @str73, i32 1, [1 x i8]* @str74, [1 x i8]* @str74, i32 1, i32 1, i8* %img_1_data_stream_1_V, i8* %img_1_data_stream_1_V) ; <i32> [#uses=0]
  %empty_46 = call i32 (...)* @_ssdm_op_SpecFifo(i8* %img_1_data_stream_1_V, [8 x i8]* @str75, i32 0, i32 0, [8 x i8]* @str75) ; <i32> [#uses=0]
  %img_1_data_stream_2_V = alloca i8, align 1     ; <i8*> [#uses=5]
  %empty_47 = call i32 (...)* @_ssdm_op_SpecChannel([22 x i8]* @str76, i32 1, [1 x i8]* @str77, [1 x i8]* @str77, i32 1, i32 1, i8* %img_1_data_stream_2_V, i8* %img_1_data_stream_2_V) ; <i32> [#uses=0]
  %empty_48 = call i32 (...)* @_ssdm_op_SpecFifo(i8* %img_1_data_stream_2_V, [8 x i8]* @str78, i32 0, i32 0, [8 x i8]* @str78) ; <i32> [#uses=0]
  call void (...)* @_ssdm_op_SpecIFCore(i32* %input_V_data_V, i4* %input_V_keep_V, i4* %input_V_strb_V, i1* %input_V_user_V, i1* %input_V_last_V, i1* %input_V_id_V, i1* %input_V_dest_V, [1 x i8]* @p_str20, [5 x i8]* @p_str34, [1 x i8]* @p_str20, [1 x i8]* @p_str20, [1 x i8]* @p_str20, [25 x i8]* @p_str35)
  call void (...)* @_ssdm_op_SpecIFCore(i32* %output_V_data_V, i4* %output_V_keep_V, i4* %output_V_strb_V, i1* %output_V_user_V, i1* %output_V_last_V, i1* %output_V_id_V, i1* %output_V_dest_V, [1 x i8]* @p_str20, [5 x i8]* @p_str34, [1 x i8]* @p_str20, [1 x i8]* @p_str20, [1 x i8]* @p_str20, [26 x i8]* @p_str36)
  call void (...)* @_ssdm_op_SpecIFCore(i32 %rows, [1 x i8]* @p_str20, [10 x i8]* @p_str37, [1 x i8]* @p_str20, [1 x i8]* @p_str20, [1 x i8]* @p_str20, [24 x i8]* @p_str38)
  call void (...)* @_ssdm_op_SpecIFCore(i32 %cols, [1 x i8]* @p_str20, [10 x i8]* @p_str37, [1 x i8]* @p_str20, [1 x i8]* @p_str20, [1 x i8]* @p_str20, [24 x i8]* @p_str38)
  call void (...)* @_ssdm_op_SpecIFCore(i32 0, [1 x i8]* @p_str20, [10 x i8]* @p_str37, [1 x i8]* @p_str20, [1 x i8]* @p_str20, [1 x i8]* @p_str20, [24 x i8]* @p_str38)
  call void (...)* @_ssdm_op_SpecWire(i32 %rows, [10 x i8]* @p_str39, i32 0, i32 0, [1 x i8]* @p_str20) nounwind
  call void (...)* @_ssdm_op_SpecWire(i32 %cols, [10 x i8]* @p_str39, i32 0, i32 0, [1 x i8]* @p_str20) nounwind
  %call_ret = call fastcc %"hls::Mat<1080, 1920, 16>::init_ret" @init(i32 %rows_read, i32 %cols_read) ; <%"hls::Mat<1080, 1920, 16>::init_ret"> [#uses=4]
  %img_0_rows_V = extractvalue %"hls::Mat<1080, 1920, 16>::init_ret" %call_ret, 0 ; <i12> [#uses=1]
  %img_0_rows_V_channel = extractvalue %"hls::Mat<1080, 1920, 16>::init_ret" %call_ret, 1 ; <i12> [#uses=1]
  %img_0_cols_V = extractvalue %"hls::Mat<1080, 1920, 16>::init_ret" %call_ret, 2 ; <i12> [#uses=1]
  %img_0_cols_V_channel = extractvalue %"hls::Mat<1080, 1920, 16>::init_ret" %call_ret, 3 ; <i12> [#uses=1]
  %call_ret1 = call fastcc %"hls::Mat<1080, 1920, 16>::init.1_ret" @init.1(i32 %rows_read, i32 %cols_read) ; <%"hls::Mat<1080, 1920, 16>::init.1_ret"> [#uses=2]
  %img_1_rows_V = extractvalue %"hls::Mat<1080, 1920, 16>::init.1_ret" %call_ret1, 0 ; <i12> [#uses=1]
  %img_1_cols_V = extractvalue %"hls::Mat<1080, 1920, 16>::init.1_ret" %call_ret1, 1 ; <i12> [#uses=1]
  call fastcc void @"AXIvideo2Mat<32,1080,1920,16>"(i32* %input_V_data_V, i4* %input_V_keep_V, i4* %input_V_strb_V, i1* %input_V_user_V, i1* %input_V_last_V, i1* %input_V_id_V, i1* %input_V_dest_V, i12 %img_0_rows_V, i12 %img_0_cols_V, i8* %img_0_data_stream_0_V, i8* %img_0_data_stream_1_V, i8* %img_0_data_stream_2_V)
  call fastcc void @"CvtColor<0,16,16,1080,1920>"(i12 %img_0_rows_V_channel, i12 %img_0_cols_V_channel, i8* %img_0_data_stream_0_V, i8* %img_0_data_stream_1_V, i8* %img_0_data_stream_2_V, i8* %img_1_data_stream_0_V, i8* %img_1_data_stream_1_V, i8* %img_1_data_stream_2_V)
  call fastcc void @"Mat2AXIvideo<32,1080,1920,16>"(i12 %img_1_rows_V, i12 %img_1_cols_V, i8* %img_1_data_stream_0_V, i8* %img_1_data_stream_1_V, i8* %img_1_data_stream_2_V, i32* %output_V_data_V, i4* %output_V_keep_V, i4* %output_V_strb_V, i1* %output_V_user_V, i1* %output_V_last_V, i1* %output_V_id_V, i1* %output_V_dest_V)
  ret void
}

define weak void @_ssdm_op_SpecWire(...) nounwind {
entry:
  ret void
}

define weak void @_ssdm_op_SpecDataflowPipeline(...) nounwind {
entry:
  ret void
}

declare void @llvm.dbg.value(metadata, i64, metadata) nounwind readnone

declare void @_GLOBAL__I__Z5SobelRN3hls3MatILi1080ELi1920ELi16EEES2_ii() nounwind

declare void @_GLOBAL__D__Z5SobelRN3hls3MatILi1080ELi1920ELi16EEES2_ii() nounwind

define weak i32 @_ssdm_op_SpecRegionBegin(...) {
entry:
  ret i32 0
}

define weak i32 @_ssdm_op_SpecRegionEnd(...) {
entry:
  ret i32 0
}

define weak void @_ssdm_op_SpecIFCore(...) {
entry:
  ret void
}

define weak i32 @_ssdm_op_SpecFifo(...) {
entry:
  ret i32 0
}

define weak i8 @_ssdm_op_PartSelect.i8.i32.i32.i32(i32, i32, i32) nounwind readnone {
entry:
  %empty = call i32 @llvm.part.select.i32(i32 %0, i32 %1, i32 %2) ; <i32> [#uses=1]
  %empty_49 = trunc i32 %empty to i8              ; <i8> [#uses=1]
  ret i8 %empty_49
}

define weak i32 @_ssdm_op_BitConcatenate.i32.i8.i8.i8.i8(i8, i8, i8, i8) nounwind readnone {
entry:
  %empty = zext i8 %2 to i16                      ; <i16> [#uses=1]
  %empty_50 = zext i8 %3 to i16                   ; <i16> [#uses=2]
  %empty_51 = trunc i16 %empty to i8              ; <i8> [#uses=1]
  %empty_52 = call i8 @_ssdm_op_PartSelect.i8.i16.i32.i32(i16 %empty_50, i32 8, i32 15) ; <i8> [#uses=1]
  %empty_53 = or i8 %empty_51, %empty_52          ; <i8> [#uses=1]
  %empty_54 = call i16 @_ssdm_op_PartSet.i16.i16.i8.i32.i32(i16 %empty_50, i8 %empty_53, i32 8, i32 15) ; <i16> [#uses=1]
  %empty_55 = zext i8 %1 to i24                   ; <i24> [#uses=1]
  %empty_56 = zext i16 %empty_54 to i24           ; <i24> [#uses=2]
  %empty_57 = trunc i24 %empty_55 to i8           ; <i8> [#uses=1]
  %empty_58 = call i8 @_ssdm_op_PartSelect.i8.i24.i32.i32(i24 %empty_56, i32 16, i32 23) ; <i8> [#uses=1]
  %empty_59 = or i8 %empty_57, %empty_58          ; <i8> [#uses=1]
  %empty_60 = call i24 @_ssdm_op_PartSet.i24.i24.i8.i32.i32(i24 %empty_56, i8 %empty_59, i32 16, i32 23) ; <i24> [#uses=1]
  %empty_61 = zext i8 %0 to i32                   ; <i32> [#uses=1]
  %empty_62 = zext i24 %empty_60 to i32           ; <i32> [#uses=2]
  %empty_63 = trunc i32 %empty_61 to i8           ; <i8> [#uses=1]
  %empty_64 = call i8 @_ssdm_op_PartSelect.i8.i32.i32.i32(i32 %empty_62, i32 24, i32 31) ; <i8> [#uses=1]
  %empty_65 = or i8 %empty_63, %empty_64          ; <i8> [#uses=1]
  %empty_66 = call i32 @_ssdm_op_PartSet.i32.i32.i8.i32.i32(i32 %empty_62, i8 %empty_65, i32 24, i32 31) ; <i32> [#uses=1]
  ret i32 %empty_66
}

define weak i32 @_ssdm_op_SpecChannel(...) {
entry:
  ret i32 0
}

define internal fastcc void @"AXIvideo2Mat<32,1080,1920,16>"(i32* %AXI_video_strm_V_data_V, i4* %AXI_video_strm_V_keep_V, i4* %AXI_video_strm_V_strb_V, i1* %AXI_video_strm_V_user_V, i1* %AXI_video_strm_V_last_V, i1* %AXI_video_strm_V_id_V, i1* %AXI_video_strm_V_dest_V, i12 %img_rows_V_read, i12 %img_cols_V_read, i8* %img_data_stream_0_V, i8* %img_data_stream_1_V, i8* %img_data_stream_2_V) {
entry:
  %empty = call i32 (...)* @_ssdm_op_SpecFifo(i8* %img_data_stream_2_V, [8 x i8]* @str69, i32 0, i32 0, [8 x i8]* @str69) ; <i32> [#uses=0]
  %empty_67 = call i32 (...)* @_ssdm_op_SpecFifo(i8* %img_data_stream_1_V, [8 x i8]* @str66, i32 0, i32 0, [8 x i8]* @str66) ; <i32> [#uses=0]
  %empty_68 = call i32 (...)* @_ssdm_op_SpecFifo(i8* %img_data_stream_0_V, [8 x i8]* @str63, i32 0, i32 0, [8 x i8]* @str63) ; <i32> [#uses=0]
  %empty_69 = call i32 (...)* @_ssdm_op_SpecFifo(i1* %AXI_video_strm_V_dest_V, [8 x i8]* @str45, i32 0, i32 0, [8 x i8]* @str45) ; <i32> [#uses=0]
  %empty_70 = call i32 (...)* @_ssdm_op_SpecFifo(i1* %AXI_video_strm_V_id_V, [8 x i8]* @str44, i32 0, i32 0, [8 x i8]* @str44) ; <i32> [#uses=0]
  %empty_71 = call i32 (...)* @_ssdm_op_SpecFifo(i1* %AXI_video_strm_V_last_V, [8 x i8]* @str43, i32 0, i32 0, [8 x i8]* @str43) ; <i32> [#uses=0]
  %empty_72 = call i32 (...)* @_ssdm_op_SpecFifo(i1* %AXI_video_strm_V_user_V, [8 x i8]* @str42, i32 0, i32 0, [8 x i8]* @str42) ; <i32> [#uses=0]
  %empty_73 = call i32 (...)* @_ssdm_op_SpecFifo(i4* %AXI_video_strm_V_strb_V, [8 x i8]* @str41, i32 0, i32 0, [8 x i8]* @str41) ; <i32> [#uses=0]
  %empty_74 = call i32 (...)* @_ssdm_op_SpecFifo(i4* %AXI_video_strm_V_keep_V, [8 x i8]* @str40, i32 0, i32 0, [8 x i8]* @str40) ; <i32> [#uses=0]
  %empty_75 = call i32 (...)* @_ssdm_op_SpecFifo(i32* %AXI_video_strm_V_data_V, [8 x i8]* @str, i32 0, i32 0, [8 x i8]* @str) ; <i32> [#uses=0]
  call void (...)* @_ssdm_op_SpecIFCore(i32* %AXI_video_strm_V_data_V, i4* %AXI_video_strm_V_keep_V, i4* %AXI_video_strm_V_strb_V, i1* %AXI_video_strm_V_user_V, i1* %AXI_video_strm_V_last_V, i1* %AXI_video_strm_V_id_V, i1* %AXI_video_strm_V_dest_V, [1 x i8]* @p_str20, [5 x i8]* @p_str34, [1 x i8]* @p_str20, [1 x i8]* @p_str20, [1 x i8]* @p_str20, [25 x i8]* @p_str35)
  %img_cols_V_read_1 = call i12 @_ssdm_op_WireRead.i12(i12 %img_cols_V_read) ; <i12> [#uses=1]
  %img_rows_V_read_1 = call i12 @_ssdm_op_WireRead.i12(i12 %img_rows_V_read) ; <i12> [#uses=1]
  br label %bb3

bb2:                                              ; preds = %bb3
  %tmp = call i32 (...)* @_ssdm_op_SpecRegionBegin([13 x i8]* @p_str25) ; <i32> [#uses=1]
  call void (...)* @_ssdm_op_SpecPipeline(i32 1, i32 1, i32 1, [1 x i8]* @p_str20) nounwind
  %empty_76 = call %0 @_ssdm_op_FifoRead.volatile.i32P.i4P.i4P.i1P.i1P.i1P.i1P(i32* %AXI_video_strm_V_data_V, i4* %AXI_video_strm_V_keep_V, i4* %AXI_video_strm_V_strb_V, i1* %AXI_video_strm_V_user_V, i1* %AXI_video_strm_V_last_V, i1* %AXI_video_strm_V_id_V, i1* %AXI_video_strm_V_dest_V) ; <%0> [#uses=3]
  %tmp_data_V = extractvalue %0 %empty_76, 0      ; <i32> [#uses=1]
  %tmp_user_V = extractvalue %0 %empty_76, 3      ; <i1> [#uses=1]
  %tmp_last_V = extractvalue %0 %empty_76, 4      ; <i1> [#uses=1]
  %empty_77 = call i32 (...)* @_ssdm_op_SpecRegionEnd([13 x i8]* @p_str25, i32 %tmp) ; <i32> [#uses=0]
  br label %bb3

bb3:                                              ; preds = %bb2, %entry
  %axi_data_V = phi i32 [ undef, %entry ], [ %tmp_data_V, %bb2 ] ; <i32> [#uses=1]
  %axi_last_V = phi i1 [ undef, %entry ], [ %tmp_last_V, %bb2 ] ; <i1> [#uses=1]
  %axi_user_V = phi i1 [ false, %entry ], [ %tmp_user_V, %bb2 ] ; <i1> [#uses=1]
  br i1 %axi_user_V, label %bb37.preheader, label %bb2

bb37.preheader:                                   ; preds = %bb3
  %sof = alloca i1                                ; <i1*> [#uses=3]
  store i1 true, i1* %sof
  br label %bb37

bb6:                                              ; preds = %bb37
  %tmp_1 = call i32 (...)* @_ssdm_op_SpecRegionBegin([13 x i8]* @p_str26) ; <i32> [#uses=1]
  call void (...)* @_ssdm_op_SpecLoopTripCount(i32 0, i32 1080, i32 0, [1 x i8]* @p_str20) nounwind
  br label %bb29

bb7:                                              ; preds = %bb29
  %sof_load = load i1* %sof                       ; <i1> [#uses=1]
  %tmp_2 = call i32 (...)* @_ssdm_op_SpecRegionBegin([13 x i8]* @p_str27) ; <i32> [#uses=1]
  call void (...)* @_ssdm_op_SpecLoopTripCount(i32 0, i32 1920, i32 0, [1 x i8]* @p_str20) nounwind
  call void (...)* @_ssdm_op_SpecPipeline(i32 1, i32 1, i32 1, [1 x i8]* @p_str20) nounwind
  br i1 %sof_load, label %bb14.pre, label %bb9

bb9:                                              ; preds = %bb7
  br i1 %eol, label %bb14, label %bb12

bb12:                                             ; preds = %bb9
  %empty_78 = call %0 @_ssdm_op_FifoRead.volatile.i32P.i4P.i4P.i1P.i1P.i1P.i1P(i32* %AXI_video_strm_V_data_V, i4* %AXI_video_strm_V_keep_V, i4* %AXI_video_strm_V_strb_V, i1* %AXI_video_strm_V_user_V, i1* %AXI_video_strm_V_last_V, i1* %AXI_video_strm_V_id_V, i1* %AXI_video_strm_V_dest_V) ; <%0> [#uses=2]
  %tmp_data_V_1 = extractvalue %0 %empty_78, 0    ; <i32> [#uses=1]
  %tmp_last_V_1 = extractvalue %0 %empty_78, 4    ; <i1> [#uses=2]
  br label %bb14

bb14.pre:                                         ; preds = %bb7
  store i1 false, i1* %sof
  br label %bb14

bb14:                                             ; preds = %bb14.pre, %bb12, %bb9
  %axi_data_V_8 = phi i32 [ %tmp_data_V_1, %bb12 ], [ %axi_data_V_2, %bb14.pre ], [ 0, %bb9 ] ; <i32> [#uses=4]
  %axi_last_V_7 = phi i1 [ %tmp_last_V_1, %bb12 ], [ %eol_6, %bb14.pre ], [ false, %bb9 ] ; <i1> [#uses=1]
  %eol_5 = phi i1 [ %tmp_last_V_1, %bb12 ], [ %eol_6, %bb14.pre ], [ %eol, %bb9 ] ; <i1> [#uses=1]
  %pix_val_0 = trunc i32 %axi_data_V_8 to i8      ; <i8> [#uses=1]
  %pix_val_1 = call i8 @_ssdm_op_PartSelect.i8.i32.i32.i32(i32 %axi_data_V_8, i32 8, i32 15) ; <i8> [#uses=1]
  %pix_val_2 = call i8 @_ssdm_op_PartSelect.i8.i32.i32.i32(i32 %axi_data_V_8, i32 16, i32 23) ; <i8> [#uses=1]
  call void @_ssdm_op_FifoWrite.volatile.i8P(i8* %img_data_stream_0_V, i8 %pix_val_0)
  call void @_ssdm_op_FifoWrite.volatile.i8P(i8* %img_data_stream_1_V, i8 %pix_val_1)
  call void @_ssdm_op_FifoWrite.volatile.i8P(i8* %img_data_stream_2_V, i8 %pix_val_2)
  %empty_79 = call i32 (...)* @_ssdm_op_SpecRegionEnd([13 x i8]* @p_str27, i32 %tmp_2) ; <i32> [#uses=0]
  br label %bb29

bb29:                                             ; preds = %bb14, %bb6
  %axi_data_V_2 = phi i32 [ %axi_data_V_1, %bb6 ], [ %axi_data_V_8, %bb14 ] ; <i32> [#uses=2]
  %eol_6 = phi i1 [ %axi_last_V_1, %bb6 ], [ %axi_last_V_7, %bb14 ] ; <i1> [#uses=3]
  %t_V_1 = phi i12 [ 0, %bb6 ], [ %j_V, %bb14 ]   ; <i12> [#uses=2]
  %eol = phi i1 [ false, %bb6 ], [ %eol_5, %bb14 ] ; <i1> [#uses=3]
  %exitcond3 = icmp eq i12 %t_V_1, %img_cols_V_read_1 ; <i1> [#uses=1]
  %j_V = add i12 %t_V_1, 1                        ; <i12> [#uses=1]
  br i1 %exitcond3, label %bb32, label %bb7

bb31:                                             ; preds = %bb32
  %tmp_3 = call i32 (...)* @_ssdm_op_SpecRegionBegin([13 x i8]* @p_str28) ; <i32> [#uses=1]
  call void (...)* @_ssdm_op_SpecPipeline(i32 1, i32 1, i32 1, [1 x i8]* @p_str20) nounwind
  %empty_80 = call %0 @_ssdm_op_FifoRead.volatile.i32P.i4P.i4P.i1P.i1P.i1P.i1P(i32* %AXI_video_strm_V_data_V, i4* %AXI_video_strm_V_keep_V, i4* %AXI_video_strm_V_strb_V, i1* %AXI_video_strm_V_user_V, i1* %AXI_video_strm_V_last_V, i1* %AXI_video_strm_V_id_V, i1* %AXI_video_strm_V_dest_V) ; <%0> [#uses=2]
  %tmp_data_V_2 = extractvalue %0 %empty_80, 0    ; <i32> [#uses=1]
  %tmp_last_V_2 = extractvalue %0 %empty_80, 4    ; <i1> [#uses=2]
  %empty_81 = call i32 (...)* @_ssdm_op_SpecRegionEnd([13 x i8]* @p_str28, i32 %tmp_3) ; <i32> [#uses=0]
  br label %bb32

bb32:                                             ; preds = %bb29, %bb31
  %axi_data_V_4 = phi i32 [ %tmp_data_V_2, %bb31 ], [ %axi_data_V_2, %bb29 ] ; <i32> [#uses=1]
  %axi_last_V_4 = phi i1 [ %tmp_last_V_2, %bb31 ], [ %eol_6, %bb29 ] ; <i1> [#uses=1]
  %eol_1 = phi i1 [ %tmp_last_V_2, %bb31 ], [ %eol, %bb29 ] ; <i1> [#uses=1]
  br i1 %eol_1, label %bb35, label %bb31

bb35:                                             ; preds = %bb32
  %empty_82 = call i32 (...)* @_ssdm_op_SpecRegionEnd([13 x i8]* @p_str26, i32 %tmp_1) ; <i32> [#uses=0]
  br label %bb37

bb37:                                             ; preds = %bb37.preheader, %bb35
  %axi_data_V_1 = phi i32 [ %axi_data_V_4, %bb35 ], [ %axi_data_V, %bb37.preheader ] ; <i32> [#uses=1]
  %axi_last_V_1 = phi i1 [ %axi_last_V_4, %bb35 ], [ %axi_last_V, %bb37.preheader ] ; <i1> [#uses=1]
  %t_V = phi i12 [ %i_V, %bb35 ], [ 0, %bb37.preheader ] ; <i12> [#uses=2]
  %exitcond = icmp eq i12 %t_V, %img_rows_V_read_1 ; <i1> [#uses=1]
  %i_V = add i12 %t_V, 1                          ; <i12> [#uses=1]
  br i1 %exitcond, label %return, label %bb6

return:                                           ; preds = %bb37
  ret void
}

define internal fastcc void @"CvtColor<0,16,16,1080,1920>"(i12 %p_src_rows_V_read, i12 %p_src_cols_V_read, i8* %p_src_data_stream_0_V, i8* %p_src_data_stream_1_V, i8* %p_src_data_stream_2_V, i8* %p_dst_data_stream_0_V, i8* %p_dst_data_stream_1_V, i8* %p_dst_data_stream_2_V) {
entry:
  %empty = call i32 (...)* @_ssdm_op_SpecFifo(i8* %p_dst_data_stream_2_V, [8 x i8]* @str78, i32 0, i32 0, [8 x i8]* @str78) ; <i32> [#uses=0]
  %empty_83 = call i32 (...)* @_ssdm_op_SpecFifo(i8* %p_dst_data_stream_1_V, [8 x i8]* @str75, i32 0, i32 0, [8 x i8]* @str75) ; <i32> [#uses=0]
  %empty_84 = call i32 (...)* @_ssdm_op_SpecFifo(i8* %p_dst_data_stream_0_V, [8 x i8]* @str72, i32 0, i32 0, [8 x i8]* @str72) ; <i32> [#uses=0]
  %empty_85 = call i32 (...)* @_ssdm_op_SpecFifo(i8* %p_src_data_stream_2_V, [8 x i8]* @str69, i32 0, i32 0, [8 x i8]* @str69) ; <i32> [#uses=0]
  %empty_86 = call i32 (...)* @_ssdm_op_SpecFifo(i8* %p_src_data_stream_1_V, [8 x i8]* @str66, i32 0, i32 0, [8 x i8]* @str66) ; <i32> [#uses=0]
  %empty_87 = call i32 (...)* @_ssdm_op_SpecFifo(i8* %p_src_data_stream_0_V, [8 x i8]* @str63, i32 0, i32 0, [8 x i8]* @str63) ; <i32> [#uses=0]
  %p_src_cols_V_read_1 = call i12 @_ssdm_op_WireRead.i12(i12 %p_src_cols_V_read) ; <i12> [#uses=1]
  %p_src_rows_V_read_1 = call i12 @_ssdm_op_WireRead.i12(i12 %p_src_rows_V_read) ; <i12> [#uses=1]
  br label %bb4.i

bb.i:                                             ; preds = %bb4.i
  %tmp = call i32 (...)* @_ssdm_op_SpecRegionBegin([13 x i8]* @p_str30) ; <i32> [#uses=1]
  call void (...)* @_ssdm_op_SpecLoopTripCount(i32 0, i32 1080, i32 0, [1 x i8]* @p_str20) nounwind
  br label %bb2.i

bb1.i:                                            ; preds = %bb2.i
  %tmp_8 = call i32 (...)* @_ssdm_op_SpecRegionBegin([13 x i8]* @p_str31) ; <i32> [#uses=1]
  call void (...)* @_ssdm_op_SpecLoopTripCount(i32 0, i32 1920, i32 0, [1 x i8]* @p_str20) nounwind
  call void (...)* @_ssdm_op_SpecPipeline(i32 1, i32 1, i32 1, [1 x i8]* @p_str20) nounwind
  %tmp_13 = call i8 @_ssdm_op_FifoRead.volatile.i8P(i8* %p_src_data_stream_0_V) ; <i8> [#uses=1]
  %tmp_14 = call i8 @_ssdm_op_FifoRead.volatile.i8P(i8* %p_src_data_stream_1_V) ; <i8> [#uses=1]
  %tmp_15 = call i8 @_ssdm_op_FifoRead.volatile.i8P(i8* %p_src_data_stream_2_V) ; <i8> [#uses=1]
  %p_cast7 = zext i8 %tmp_15 to i26               ; <i26> [#uses=1]
  %r_V = mul i26 %p_cast7, 239075                 ; <i26> [#uses=1]
  %p_cast6 = zext i8 %tmp_14 to i29               ; <i29> [#uses=1]
  %b_V = mul i29 %p_cast6, 1231028                ; <i29> [#uses=1]
  %p_cast = zext i8 %tmp_13 to i28                ; <i28> [#uses=1]
  %g_V = mul i28 %p_cast, 627048                  ; <i28> [#uses=1]
  %lhs_V1_i_cast = zext i26 %r_V to i28           ; <i28> [#uses=1]
  %r_V_1 = add i28 %g_V, %lhs_V1_i_cast           ; <i28> [#uses=1]
  %lhs_V_1_i_cast = zext i28 %r_V_1 to i29        ; <i29> [#uses=1]
  %r_V_2 = add i29 %b_V, %lhs_V_1_i_cast          ; <i29> [#uses=2]
  %tmp_7 = call i8 @_ssdm_op_PartSelect.i8.i29.i32.i32(i29 %r_V_2, i32 21, i32 28) ; <i8> [#uses=1]
  %p_Val2_8_i_cast = zext i8 %tmp_7 to i9         ; <i9> [#uses=1]
  %qbit = call i1 @_ssdm_op_BitSelect.i1.i29.i32(i29 %r_V_2, i32 20) ; <i1> [#uses=1]
  %tmp_7_i_cast = zext i1 %qbit to i9             ; <i9> [#uses=1]
  %p_Val2_s = add i9 %p_Val2_8_i_cast, %tmp_7_i_cast ; <i9> [#uses=2]
  %tmp_11 = call i1 @_ssdm_op_BitSelect.i1.i9.i32(i9 %p_Val2_s, i32 8) ; <i1> [#uses=1]
  %tmp_12 = trunc i9 %p_Val2_s to i8              ; <i8> [#uses=1]
  %p_d_val_0 = select i1 %tmp_11, i8 -1, i8 %tmp_12 ; <i8> [#uses=3]
  call void @_ssdm_op_FifoWrite.volatile.i8P(i8* %p_dst_data_stream_0_V, i8 %p_d_val_0)
  call void @_ssdm_op_FifoWrite.volatile.i8P(i8* %p_dst_data_stream_1_V, i8 %p_d_val_0)
  call void @_ssdm_op_FifoWrite.volatile.i8P(i8* %p_dst_data_stream_2_V, i8 %p_d_val_0)
  %empty_88 = call i32 (...)* @_ssdm_op_SpecRegionEnd([13 x i8]* @p_str31, i32 %tmp_8) ; <i32> [#uses=0]
  br label %bb2.i

bb2.i:                                            ; preds = %bb1.i, %bb.i
  %j = phi i12 [ 0, %bb.i ], [ %j_1, %bb1.i ]     ; <i12> [#uses=2]
  %exitcond3 = icmp eq i12 %j, %p_src_cols_V_read_1 ; <i1> [#uses=1]
  %j_1 = add i12 %j, 1                            ; <i12> [#uses=1]
  br i1 %exitcond3, label %bb3.i, label %bb1.i

bb3.i:                                            ; preds = %bb2.i
  %empty_89 = call i32 (...)* @_ssdm_op_SpecRegionEnd([13 x i8]* @p_str30, i32 %tmp) ; <i32> [#uses=0]
  br label %bb4.i

bb4.i:                                            ; preds = %bb3.i, %entry
  %i = phi i12 [ 0, %entry ], [ %i_1, %bb3.i ]    ; <i12> [#uses=2]
  %exitcond4 = icmp eq i12 %i, %p_src_rows_V_read_1 ; <i1> [#uses=1]
  %i_1 = add i12 %i, 1                            ; <i12> [#uses=1]
  br i1 %exitcond4, label %"CvtColor_opr<kernel_RGB2GRAY,16,16,1080,1920>.exit", label %bb.i

"CvtColor_opr<kernel_RGB2GRAY,16,16,1080,1920>.exit": ; preds = %bb4.i
  ret void
}

define internal fastcc void @"Mat2AXIvideo<32,1080,1920,16>"(i12 %img_rows_V_read, i12 %img_cols_V_read, i8* %img_data_stream_0_V, i8* %img_data_stream_1_V, i8* %img_data_stream_2_V, i32* %AXI_video_strm_V_data_V, i4* %AXI_video_strm_V_keep_V, i4* %AXI_video_strm_V_strb_V, i1* %AXI_video_strm_V_user_V, i1* %AXI_video_strm_V_last_V, i1* %AXI_video_strm_V_id_V, i1* %AXI_video_strm_V_dest_V) {
entry:
  %sof_2 = alloca i1                              ; <i1*> [#uses=3]
  %empty = call i32 (...)* @_ssdm_op_SpecFifo(i8* %img_data_stream_2_V, [8 x i8]* @str78, i32 0, i32 0, [8 x i8]* @str78) ; <i32> [#uses=0]
  %empty_90 = call i32 (...)* @_ssdm_op_SpecFifo(i8* %img_data_stream_1_V, [8 x i8]* @str75, i32 0, i32 0, [8 x i8]* @str75) ; <i32> [#uses=0]
  %empty_91 = call i32 (...)* @_ssdm_op_SpecFifo(i8* %img_data_stream_0_V, [8 x i8]* @str72, i32 0, i32 0, [8 x i8]* @str72) ; <i32> [#uses=0]
  %empty_92 = call i32 (...)* @_ssdm_op_SpecFifo(i1* %AXI_video_strm_V_dest_V, [8 x i8]* @str52, i32 0, i32 0, [8 x i8]* @str52) ; <i32> [#uses=0]
  %empty_93 = call i32 (...)* @_ssdm_op_SpecFifo(i1* %AXI_video_strm_V_id_V, [8 x i8]* @str51, i32 0, i32 0, [8 x i8]* @str51) ; <i32> [#uses=0]
  %empty_94 = call i32 (...)* @_ssdm_op_SpecFifo(i1* %AXI_video_strm_V_last_V, [8 x i8]* @str50, i32 0, i32 0, [8 x i8]* @str50) ; <i32> [#uses=0]
  %empty_95 = call i32 (...)* @_ssdm_op_SpecFifo(i1* %AXI_video_strm_V_user_V, [8 x i8]* @str49, i32 0, i32 0, [8 x i8]* @str49) ; <i32> [#uses=0]
  %empty_96 = call i32 (...)* @_ssdm_op_SpecFifo(i4* %AXI_video_strm_V_strb_V, [8 x i8]* @str48, i32 0, i32 0, [8 x i8]* @str48) ; <i32> [#uses=0]
  %empty_97 = call i32 (...)* @_ssdm_op_SpecFifo(i4* %AXI_video_strm_V_keep_V, [8 x i8]* @str47, i32 0, i32 0, [8 x i8]* @str47) ; <i32> [#uses=0]
  %empty_98 = call i32 (...)* @_ssdm_op_SpecFifo(i32* %AXI_video_strm_V_data_V, [8 x i8]* @str46, i32 0, i32 0, [8 x i8]* @str46) ; <i32> [#uses=0]
  call void (...)* @_ssdm_op_SpecIFCore(i32* %AXI_video_strm_V_data_V, i4* %AXI_video_strm_V_keep_V, i4* %AXI_video_strm_V_strb_V, i1* %AXI_video_strm_V_user_V, i1* %AXI_video_strm_V_last_V, i1* %AXI_video_strm_V_id_V, i1* %AXI_video_strm_V_dest_V, [1 x i8]* @p_str20, [5 x i8]* @p_str34, [1 x i8]* @p_str20, [1 x i8]* @p_str20, [1 x i8]* @p_str20, [26 x i8]* @p_str36)
  %img_cols_V_read_2 = call i12 @_ssdm_op_WireRead.i12(i12 %img_cols_V_read) ; <i12> [#uses=2]
  %img_rows_V_read_2 = call i12 @_ssdm_op_WireRead.i12(i12 %img_rows_V_read) ; <i12> [#uses=1]
  %retval_i_cast = zext i12 %img_cols_V_read_2 to i13 ; <i13> [#uses=1]
  %op2_assign = add i13 %retval_i_cast, -1        ; <i13> [#uses=1]
  store i1 true, i1* %sof_2
  br label %bb17

bb2:                                              ; preds = %bb17
  %tmp = call i32 (...)* @_ssdm_op_SpecRegionBegin([13 x i8]* @p_str32) ; <i32> [#uses=1]
  call void (...)* @_ssdm_op_SpecLoopTripCount(i32 0, i32 1080, i32 0, [1 x i8]* @p_str20) nounwind
  br label %bb14

bb3:                                              ; preds = %bb14
  %sof_2_load = load i1* %sof_2                   ; <i1> [#uses=1]
  %tmp_s = call i32 (...)* @_ssdm_op_SpecRegionBegin([13 x i8]* @p_str33) ; <i32> [#uses=1]
  call void (...)* @_ssdm_op_SpecLoopTripCount(i32 0, i32 1920, i32 0, [1 x i8]* @p_str20) nounwind
  call void (...)* @_ssdm_op_SpecPipeline(i32 1, i32 1, i32 1, [1 x i8]* @p_str20) nounwind
  %tmp_cast = zext i12 %t_V_2 to i13              ; <i13> [#uses=1]
  %axi_last_V = icmp eq i13 %tmp_cast, %op2_assign ; <i1> [#uses=1]
  %tmp_19 = call i8 @_ssdm_op_FifoRead.volatile.i8P(i8* %img_data_stream_0_V) ; <i8> [#uses=1]
  %tmp_20 = call i8 @_ssdm_op_FifoRead.volatile.i8P(i8* %img_data_stream_1_V) ; <i8> [#uses=1]
  %tmp_21 = call i8 @_ssdm_op_FifoRead.volatile.i8P(i8* %img_data_stream_2_V) ; <i8> [#uses=1]
  %axi_data_V = call i32 @_ssdm_op_BitConcatenate.i32.i8.i8.i8.i8(i8 -1, i8 %tmp_21, i8 %tmp_20, i8 %tmp_19) ; <i32> [#uses=1]
  call void @_ssdm_op_FifoWrite.volatile.i32P.i4P.i4P.i1P.i1P.i1P.i1P(i32* %AXI_video_strm_V_data_V, i4* %AXI_video_strm_V_keep_V, i4* %AXI_video_strm_V_strb_V, i1* %AXI_video_strm_V_user_V, i1* %AXI_video_strm_V_last_V, i1* %AXI_video_strm_V_id_V, i1* %AXI_video_strm_V_dest_V, i32 %axi_data_V, i4 -1, i4 undef, i1 %sof_2_load, i1 %axi_last_V, i1 undef, i1 undef)
  %empty_99 = call i32 (...)* @_ssdm_op_SpecRegionEnd([13 x i8]* @p_str33, i32 %tmp_s) ; <i32> [#uses=0]
  store i1 false, i1* %sof_2
  br label %bb14

bb14:                                             ; preds = %bb3, %bb2
  %t_V_2 = phi i12 [ 0, %bb2 ], [ %j_V, %bb3 ]    ; <i12> [#uses=3]
  %exitcond2 = icmp eq i12 %t_V_2, %img_cols_V_read_2 ; <i1> [#uses=1]
  %j_V = add i12 %t_V_2, 1                        ; <i12> [#uses=1]
  br i1 %exitcond2, label %bb15, label %bb3

bb15:                                             ; preds = %bb14
  %empty_100 = call i32 (...)* @_ssdm_op_SpecRegionEnd([13 x i8]* @p_str32, i32 %tmp) ; <i32> [#uses=0]
  br label %bb17

bb17:                                             ; preds = %bb15, %entry
  %t_V = phi i12 [ 0, %entry ], [ %i_V, %bb15 ]   ; <i12> [#uses=2]
  %exitcond = icmp eq i12 %t_V, %img_rows_V_read_2 ; <i1> [#uses=1]
  %i_V = add i12 %t_V, 1                          ; <i12> [#uses=1]
  br i1 %exitcond, label %return, label %bb2

return:                                           ; preds = %bb17
  ret void
}

define internal fastcc %"hls::Mat<1080, 1920, 16>::init_ret" @init(i32 %p_rows, i32 %p_cols) {
entry:
  call void (...)* @_ssdm_op_SpecIFCore(i32 %p_cols, [1 x i8]* @p_str20, [10 x i8]* @p_str37, [1 x i8]* @p_str20, [1 x i8]* @p_str20, [1 x i8]* @p_str20, [24 x i8]* @p_str38)
  call void (...)* @_ssdm_op_SpecIFCore(i32 %p_rows, [1 x i8]* @p_str20, [10 x i8]* @p_str37, [1 x i8]* @p_str20, [1 x i8]* @p_str20, [1 x i8]* @p_str20, [24 x i8]* @p_str38)
  %p_cols_read = call i32 @_ssdm_op_WireRead.i32(i32 %p_cols) ; <i32> [#uses=1]
  %p_rows_read = call i32 @_ssdm_op_WireRead.i32(i32 %p_rows) ; <i32> [#uses=1]
  %tmp = trunc i32 %p_rows_read to i12            ; <i12> [#uses=2]
  %tmp_22 = trunc i32 %p_cols_read to i12         ; <i12> [#uses=2]
  %mrv = insertvalue %"hls::Mat<1080, 1920, 16>::init_ret" undef, i12 %tmp, 0 ; <%"hls::Mat<1080, 1920, 16>::init_ret"> [#uses=1]
  %mrv_1 = insertvalue %"hls::Mat<1080, 1920, 16>::init_ret" %mrv, i12 %tmp, 1 ; <%"hls::Mat<1080, 1920, 16>::init_ret"> [#uses=1]
  %mrv_2 = insertvalue %"hls::Mat<1080, 1920, 16>::init_ret" %mrv_1, i12 %tmp_22, 2 ; <%"hls::Mat<1080, 1920, 16>::init_ret"> [#uses=1]
  %mrv_3 = insertvalue %"hls::Mat<1080, 1920, 16>::init_ret" %mrv_2, i12 %tmp_22, 3 ; <%"hls::Mat<1080, 1920, 16>::init_ret"> [#uses=1]
  ret %"hls::Mat<1080, 1920, 16>::init_ret" %mrv_3
}

define internal fastcc %"hls::Mat<1080, 1920, 16>::init.1_ret" @init.1(i32 %p_rows, i32 %p_cols) {
entry:
  call void (...)* @_ssdm_op_SpecIFCore(i32 %p_cols, [1 x i8]* @p_str20, [10 x i8]* @p_str37, [1 x i8]* @p_str20, [1 x i8]* @p_str20, [1 x i8]* @p_str20, [24 x i8]* @p_str38)
  call void (...)* @_ssdm_op_SpecIFCore(i32 %p_rows, [1 x i8]* @p_str20, [10 x i8]* @p_str37, [1 x i8]* @p_str20, [1 x i8]* @p_str20, [1 x i8]* @p_str20, [24 x i8]* @p_str38)
  %p_cols_read = call i32 @_ssdm_op_WireRead.i32(i32 %p_cols) ; <i32> [#uses=1]
  %p_rows_read = call i32 @_ssdm_op_WireRead.i32(i32 %p_rows) ; <i32> [#uses=1]
  %tmp = trunc i32 %p_rows_read to i12            ; <i12> [#uses=1]
  %tmp_23 = trunc i32 %p_cols_read to i12         ; <i12> [#uses=1]
  %mrv = insertvalue %"hls::Mat<1080, 1920, 16>::init.1_ret" undef, i12 %tmp, 0 ; <%"hls::Mat<1080, 1920, 16>::init.1_ret"> [#uses=1]
  %mrv_1 = insertvalue %"hls::Mat<1080, 1920, 16>::init.1_ret" %mrv, i12 %tmp_23, 1 ; <%"hls::Mat<1080, 1920, 16>::init.1_ret"> [#uses=1]
  ret %"hls::Mat<1080, 1920, 16>::init.1_ret" %mrv_1
}

define weak i8 @_ssdm_op_PartSelect.i8.i29.i32.i32(i29, i32, i32) nounwind readnone {
entry:
  %empty = call i29 @llvm.part.select.i29(i29 %0, i32 %1, i32 %2) ; <i29> [#uses=1]
  %empty_101 = trunc i29 %empty to i8             ; <i8> [#uses=1]
  ret i8 %empty_101
}

define weak i32 @_ssdm_op_WireRead.i32(i32) {
entry:
  ret i32 %0
}

define weak i12 @_ssdm_op_WireRead.i12(i12) {
entry:
  ret i12 %0
}

define weak i8 @_ssdm_op_FifoRead.volatile.i8P(i8*) {
entry:
  %empty = call i8 @_autotb_FifoRead_i8(i8* %0)   ; <i8> [#uses=1]
  ret i8 %empty
}

define weak void @_ssdm_op_FifoWrite.volatile.i32P.i4P.i4P.i1P.i1P.i1P.i1P(i32*, i4*, i4*, i1*, i1*, i1*, i1*, i32, i4, i4, i1, i1, i1, i1) {
entry:
  %empty = call i32 @_autotb_FifoWrite_i32(i32* %0, i32 %7) ; <i32> [#uses=0]
  %empty_102 = call i4 @_autotb_FifoWrite_i4(i4* %1, i4 %8) ; <i4> [#uses=0]
  %empty_103 = call i4 @_autotb_FifoWrite_i4(i4* %2, i4 %9) ; <i4> [#uses=0]
  %empty_104 = call i1 @_autotb_FifoWrite_i1(i1* %3, i1 %10) ; <i1> [#uses=0]
  %empty_105 = call i1 @_autotb_FifoWrite_i1(i1* %4, i1 %11) ; <i1> [#uses=0]
  %empty_106 = call i1 @_autotb_FifoWrite_i1(i1* %5, i1 %12) ; <i1> [#uses=0]
  %empty_107 = call i1 @_autotb_FifoWrite_i1(i1* %6, i1 %13) ; <i1> [#uses=0]
  ret void
}

define weak void @_ssdm_op_FifoWrite.volatile.i8P(i8*, i8) {
entry:
  %empty = call i8 @_autotb_FifoWrite_i8(i8* %0, i8 %1) ; <i8> [#uses=0]
  ret void
}

define weak %0 @_ssdm_op_FifoRead.volatile.i32P.i4P.i4P.i1P.i1P.i1P.i1P(i32*, i4*, i4*, i1*, i1*, i1*, i1*) {
entry:
  %empty = call i32 @_autotb_FifoRead_i32(i32* %0) ; <i32> [#uses=1]
  %empty_108 = call i4 @_autotb_FifoRead_i4(i4* %1) ; <i4> [#uses=1]
  %empty_109 = call i4 @_autotb_FifoRead_i4(i4* %2) ; <i4> [#uses=1]
  %empty_110 = call i1 @_autotb_FifoRead_i1(i1* %3) ; <i1> [#uses=1]
  %empty_111 = call i1 @_autotb_FifoRead_i1(i1* %4) ; <i1> [#uses=1]
  %empty_112 = call i1 @_autotb_FifoRead_i1(i1* %5) ; <i1> [#uses=1]
  %empty_113 = call i1 @_autotb_FifoRead_i1(i1* %6) ; <i1> [#uses=1]
  %mrv_0 = insertvalue %0 undef, i32 %empty, 0    ; <%0> [#uses=1]
  %mrv1 = insertvalue %0 %mrv_0, i4 %empty_108, 1 ; <%0> [#uses=1]
  %mrv2 = insertvalue %0 %mrv1, i4 %empty_109, 2  ; <%0> [#uses=1]
  %mrv3 = insertvalue %0 %mrv2, i1 %empty_110, 3  ; <%0> [#uses=1]
  %mrv4 = insertvalue %0 %mrv3, i1 %empty_111, 4  ; <%0> [#uses=1]
  %mrv5 = insertvalue %0 %mrv4, i1 %empty_112, 5  ; <%0> [#uses=1]
  %mrv6 = insertvalue %0 %mrv5, i1 %empty_113, 6  ; <%0> [#uses=1]
  ret %0 %mrv6
}

define weak i1 @_ssdm_op_BitSelect.i1.i29.i32(i29, i32) nounwind readnone {
entry:
  %empty = trunc i32 %1 to i29                    ; <i29> [#uses=1]
  %empty_114 = shl i29 1, %empty                  ; <i29> [#uses=1]
  %empty_115 = and i29 %0, %empty_114             ; <i29> [#uses=1]
  %empty_116 = icmp ne i29 %empty_115, 0          ; <i1> [#uses=1]
  ret i1 %empty_116
}

define weak i1 @_ssdm_op_BitSelect.i1.i9.i32(i9, i32) nounwind readnone {
entry:
  %empty = trunc i32 %1 to i9                     ; <i9> [#uses=1]
  %empty_117 = shl i9 1, %empty                   ; <i9> [#uses=1]
  %empty_118 = and i9 %0, %empty_117              ; <i9> [#uses=1]
  %empty_119 = icmp ne i9 %empty_118, 0           ; <i1> [#uses=1]
  ret i1 %empty_119
}

declare i8 @_autotb_FifoRead_i8(i8*)

declare i32 @_autotb_FifoWrite_i32(i32*, i32)

declare i4 @_autotb_FifoWrite_i4(i4*, i4)

declare i1 @_autotb_FifoWrite_i1(i1*, i1)

declare i8 @_autotb_FifoWrite_i8(i8*, i8)

declare i32 @_autotb_FifoRead_i32(i32*)

declare i4 @_autotb_FifoRead_i4(i4*)

declare i1 @_autotb_FifoRead_i1(i1*)

declare i32 @llvm.part.select.i32(i32, i32, i32) nounwind readnone

declare i29 @llvm.part.select.i29(i29, i32, i32) nounwind readnone

declare i8 @_ssdm_op_PartSelect.i8.i9.i32.i32(i9, i32, i32) nounwind readnone

declare i12 @_ssdm_op_PartSelect.i12.i32.i32.i32(i32, i32, i32) nounwind readnone

define weak i8 @_ssdm_op_PartSelect.i8.i16.i32.i32(i16, i32, i32) nounwind readnone {
entry:
  %empty = call i16 @llvm.part.select.i16(i16 %0, i32 %1, i32 %2) ; <i16> [#uses=1]
  %empty_120 = trunc i16 %empty to i8             ; <i8> [#uses=1]
  ret i8 %empty_120
}

define weak i16 @_ssdm_op_PartSet.i16.i16.i8.i32.i32(i16, i8, i32, i32) nounwind readnone {
entry:
  %empty = call i16 @llvm.part.set.i16.i8(i16 %0, i8 %1, i32 %2, i32 %3) ; <i16> [#uses=1]
  ret i16 %empty
}

define weak i8 @_ssdm_op_PartSelect.i8.i24.i32.i32(i24, i32, i32) nounwind readnone {
entry:
  %empty = call i24 @llvm.part.select.i24(i24 %0, i32 %1, i32 %2) ; <i24> [#uses=1]
  %empty_121 = trunc i24 %empty to i8             ; <i8> [#uses=1]
  ret i8 %empty_121
}

define weak i24 @_ssdm_op_PartSet.i24.i24.i8.i32.i32(i24, i8, i32, i32) nounwind readnone {
entry:
  %empty = call i24 @llvm.part.set.i24.i8(i24 %0, i8 %1, i32 %2, i32 %3) ; <i24> [#uses=1]
  ret i24 %empty
}

define weak i32 @_ssdm_op_PartSet.i32.i32.i8.i32.i32(i32, i8, i32, i32) nounwind readnone {
entry:
  %empty = call i32 @llvm.part.set.i32.i8(i32 %0, i8 %1, i32 %2, i32 %3) ; <i32> [#uses=1]
  ret i32 %empty
}

declare i16 @llvm.part.select.i16(i16, i32, i32) nounwind readnone

declare i16 @llvm.part.set.i16.i8(i16, i8, i32, i32) nounwind readnone

declare i24 @llvm.part.select.i24(i24, i32, i32) nounwind readnone

declare i24 @llvm.part.set.i24.i8(i24, i8, i32, i32) nounwind readnone

declare i32 @llvm.part.set.i32.i8(i32, i8, i32, i32) nounwind readnone

!llvm.dbg.gv = !{!0}

!0 = metadata !{i32 458804, i32 0, metadata !1, metadata !"k_val", metadata !"k_val", metadata !"", metadata !3, i32 47, metadata !464, i1 true, i1 true, null} ; [ DW_TAG_variable ]
!1 = metadata !{i32 458798, i32 0, metadata !2, metadata !"Sobel", metadata !"Sobel", metadata !"_Z5SobelRN3hls3MatILi1080ELi1920ELi16EEES2_ii", metadata !3, i32 44, metadata !4, i1 false, i1 true, i32 0, i32 0, null, i1 false} ; [ DW_TAG_subprogram ]
!2 = metadata !{i32 458769, i32 0, i32 4, metadata !"top.pragma.2.cpp", metadata !"/ise_local2/umair_temp/vivado_projects/cvtColor/cvt_prj/solution2/.autopilot/db", metadata !"4.2.1 (Based on Apple Inc. build 5658) (LLVM build 2.7)", i1 true, i1 false, metadata !"", i32 0} ; [ DW_TAG_compile_unit ]
!3 = metadata !{i32 458769, i32 0, i32 4, metadata !"top.cpp", metadata !"/ise_local2/umair_temp/vivado_projects/cvtColor/", metadata !"4.2.1 (Based on Apple Inc. build 5658) (LLVM build 2.7)", i1 false, i1 false, metadata !"", i32 0} ; [ DW_TAG_compile_unit ]
!4 = metadata !{i32 458773, metadata !2, metadata !"", metadata !2, i32 0, i64 0, i64 0, i64 0, i32 0, null, metadata !5, i32 0, null} ; [ DW_TAG_subroutine_type ]
!5 = metadata !{null, metadata !6, metadata !6, metadata !59, metadata !59}
!6 = metadata !{i32 458768, metadata !2, metadata !"RGB_IMAGE", metadata !2, i32 0, i64 64, i64 64, i64 0, i32 0, metadata !7} ; [ DW_TAG_reference_type ]
!7 = metadata !{i32 458774, metadata !2, metadata !"RGB_IMAGE", metadata !8, i32 59, i64 0, i64 0, i64 0, i32 0, metadata !9} ; [ DW_TAG_typedef ]
!8 = metadata !{i32 458769, i32 0, i32 4, metadata !"top.h", metadata !"/ise_local2/umair_temp/vivado_projects/cvtColor/", metadata !"4.2.1 (Based on Apple Inc. build 5658) (LLVM build 2.7)", i1 false, i1 false, metadata !"", i32 0} ; [ DW_TAG_compile_unit ]
!9 = metadata !{i32 458771, metadata !10, metadata !"Mat<1080,1920,16>", metadata !12, i32 445, i64 64, i64 16, i64 0, i32 0, null, metadata !13, i32 0, null} ; [ DW_TAG_structure_type ]
!10 = metadata !{i32 458809, metadata !2, metadata !"hls", metadata !11, i32 23} ; [ DW_TAG_namespace ]
!11 = metadata !{i32 458769, i32 0, i32 4, metadata !"hls_stream.h", metadata !"/ise_local2/umair_temp/Vivado_HLS/2013.1/common/technology/autopilot", metadata !"4.2.1 (Based on Apple Inc. build 5658) (LLVM build 2.7)", i1 false, i1 false, metadata !"", i32 0} ; [ DW_TAG_compile_unit ]
!12 = metadata !{i32 458769, i32 0, i32 4, metadata !"hls_video_core.h", metadata !"/ise_local2/umair_temp/Vivado_HLS/2013.1/common/technology/autopilot/hls", metadata !"4.2.1 (Based on Apple Inc. build 5658) (LLVM build 2.7)", i1 false, i1 false, metadata !"", i32 0} ; [ DW_TAG_compile_unit ]
!13 = metadata !{metadata !14, metadata !313, metadata !314, metadata !362, metadata !366, metadata !369, metadata !416, metadata !417, metadata !421, metadata !444, metadata !448, metadata !451, metadata !452, metadata !453, metadata !456, metadata !462, metadata !463}
!14 = metadata !{i32 458765, metadata !9, metadata !"rows", metadata !12, i32 465, i64 16, i64 16, i64 0, i32 0, metadata !15} ; [ DW_TAG_member ]
!15 = metadata !{i32 458771, metadata !2, metadata !"ap_uint<12>", metadata !16, i32 134, i64 16, i64 16, i64 0, i32 0, null, metadata !17, i32 0, null} ; [ DW_TAG_structure_type ]
!16 = metadata !{i32 458769, i32 0, i32 4, metadata !"ap_int.h", metadata !"/ise_local2/umair_temp/Vivado_HLS/2013.1/common/technology/autopilot", metadata !"4.2.1 (Based on Apple Inc. build 5658) (LLVM build 2.7)", i1 false, i1 false, metadata !"", i32 0} ; [ DW_TAG_compile_unit ]
!17 = metadata !{metadata !18, metadata !245, metadata !249, metadata !252, metadata !255, metadata !258, metadata !261, metadata !264, metadata !267, metadata !270, metadata !273, metadata !276, metadata !279, metadata !282, metadata !285, metadata !288, metadata !291, metadata !294, metadata !301, metadata !306, metadata !310}
!18 = metadata !{i32 458780, metadata !2, metadata !"", null, i32 0, i64 0, i64 0, i64 0, i32 0, metadata !19} ; [ DW_TAG_inheritance ]
!19 = metadata !{i32 458771, metadata !2, metadata !"ap_int_base<12,false,true>", metadata !20, i32 599, i64 16, i64 16, i64 0, i32 0, null, metadata !21, i32 0, null} ; [ DW_TAG_structure_type ]
!20 = metadata !{i32 458769, i32 0, i32 4, metadata !"ap_int_syn.h", metadata !"/ise_local2/umair_temp/Vivado_HLS/2013.1/common/technology/autopilot", metadata !"4.2.1 (Based on Apple Inc. build 5658) (LLVM build 2.7)", i1 false, i1 false, metadata !"", i32 0} ; [ DW_TAG_compile_unit ]
!21 = metadata !{metadata !22, metadata !32, metadata !36, metadata !40, metadata !44, metadata !48, metadata !52, metadata !56, metadata !60, metadata !64, metadata !68, metadata !72, metadata !76, metadata !80, metadata !84, metadata !88, metadata !94, metadata !97, metadata !102, metadata !107, metadata !112, metadata !113, metadata !117, metadata !120, metadata !123, metadata !126, metadata !129, metadata !132, metadata !138, metadata !141, metadata !144, metadata !147, metadata !150, metadata !153, metadata !157, metadata !158, metadata !161, metadata !162, metadata !166, metadata !169, metadata !170, metadata !171, metadata !172, metadata !173, metadata !174, metadata !177, metadata !178, metadata !181, metadata !182, metadata !183, metadata !184, metadata !185, metadata !186, metadata !189, metadata !190, metadata !191, metadata !194, metadata !195, metadata !198, metadata !199, metadata !203, metadata !204, metadata !207, metadata !208, metadata !212, metadata !213, metadata !214, metadata !215, metadata !218, metadata !219, metadata !220, metadata !221, metadata !222, metadata !223, metadata !224, metadata !225, metadata !226, metadata !227, metadata !228, metadata !229, metadata !239, metadata !242}
!22 = metadata !{i32 458780, metadata !2, metadata !"", null, i32 0, i64 0, i64 0, i64 0, i32 0, metadata !23} ; [ DW_TAG_inheritance ]
!23 = metadata !{i32 458771, metadata !2, metadata !"ssdm_int<12,false>", metadata !24, i32 14, i64 16, i64 16, i64 0, i32 0, null, metadata !25, i32 0, null} ; [ DW_TAG_structure_type ]
!24 = metadata !{i32 458769, i32 0, i32 4, metadata !"autopilot_dt.def", metadata !"/ise_local2/umair_temp/Vivado_HLS/2013.1/common/technology/autopilot/etc", metadata !"4.2.1 (Based on Apple Inc. build 5658) (LLVM build 2.7)", i1 false, i1 false, metadata !"", i32 0} ; [ DW_TAG_compile_unit ]
!25 = metadata !{metadata !26, metadata !28}
!26 = metadata !{i32 458765, metadata !23, metadata !"V", metadata !24, i32 14, i64 16, i64 16, i64 0, i32 0, metadata !27} ; [ DW_TAG_member ]
!27 = metadata !{i32 458788, metadata !2, metadata !"", metadata !2, i32 0, i64 16, i64 16, i64 0, i32 0, i32 7} ; [ DW_TAG_base_type ]
!28 = metadata !{i32 458798, i32 0, metadata !23, metadata !"ssdm_int", metadata !"ssdm_int", metadata !"", metadata !24, i32 14, metadata !29, i1 false, i1 false, i32 0, i32 0, null, i1 false} ; [ DW_TAG_subprogram ]
!29 = metadata !{i32 458773, metadata !2, metadata !"", metadata !2, i32 0, i64 0, i64 0, i64 0, i32 0, null, metadata !30, i32 0, null} ; [ DW_TAG_subroutine_type ]
!30 = metadata !{null, metadata !31}
!31 = metadata !{i32 458767, metadata !2, metadata !"", metadata !2, i32 0, i64 64, i64 64, i64 0, i32 64, metadata !23} ; [ DW_TAG_pointer_type ]
!32 = metadata !{i32 458798, i32 0, metadata !19, metadata !"ap_int_base", metadata !"ap_int_base", metadata !"", metadata !20, i32 1331, metadata !33, i1 false, i1 false, i32 0, i32 0, null, i1 false} ; [ DW_TAG_subprogram ]
!33 = metadata !{i32 458773, metadata !2, metadata !"", metadata !2, i32 0, i64 0, i64 0, i64 0, i32 0, null, metadata !34, i32 0, null} ; [ DW_TAG_subroutine_type ]
!34 = metadata !{null, metadata !35}
!35 = metadata !{i32 458767, metadata !2, metadata !"", metadata !2, i32 0, i64 64, i64 64, i64 0, i32 64, metadata !19} ; [ DW_TAG_pointer_type ]
!36 = metadata !{i32 458798, i32 0, metadata !19, metadata !"ap_int_base", metadata !"ap_int_base", metadata !"", metadata !20, i32 1353, metadata !37, i1 false, i1 false, i32 0, i32 0, null, i1 false} ; [ DW_TAG_subprogram ]
!37 = metadata !{i32 458773, metadata !2, metadata !"", metadata !2, i32 0, i64 0, i64 0, i64 0, i32 0, null, metadata !38, i32 0, null} ; [ DW_TAG_subroutine_type ]
!38 = metadata !{null, metadata !35, metadata !39}
!39 = metadata !{i32 458788, metadata !2, metadata !"bool", metadata !2, i32 0, i64 8, i64 8, i64 0, i32 0, i32 2} ; [ DW_TAG_base_type ]
!40 = metadata !{i32 458798, i32 0, metadata !19, metadata !"ap_int_base", metadata !"ap_int_base", metadata !"", metadata !20, i32 1354, metadata !41, i1 false, i1 false, i32 0, i32 0, null, i1 false} ; [ DW_TAG_subprogram ]
!41 = metadata !{i32 458773, metadata !2, metadata !"", metadata !2, i32 0, i64 0, i64 0, i64 0, i32 0, null, metadata !42, i32 0, null} ; [ DW_TAG_subroutine_type ]
!42 = metadata !{null, metadata !35, metadata !43}
!43 = metadata !{i32 458788, metadata !2, metadata !"signed char", metadata !2, i32 0, i64 8, i64 8, i64 0, i32 0, i32 6} ; [ DW_TAG_base_type ]
!44 = metadata !{i32 458798, i32 0, metadata !19, metadata !"ap_int_base", metadata !"ap_int_base", metadata !"", metadata !20, i32 1355, metadata !45, i1 false, i1 false, i32 0, i32 0, null, i1 false} ; [ DW_TAG_subprogram ]
!45 = metadata !{i32 458773, metadata !2, metadata !"", metadata !2, i32 0, i64 0, i64 0, i64 0, i32 0, null, metadata !46, i32 0, null} ; [ DW_TAG_subroutine_type ]
!46 = metadata !{null, metadata !35, metadata !47}
!47 = metadata !{i32 458788, metadata !2, metadata !"unsigned char", metadata !2, i32 0, i64 8, i64 8, i64 0, i32 0, i32 8} ; [ DW_TAG_base_type ]
!48 = metadata !{i32 458798, i32 0, metadata !19, metadata !"ap_int_base", metadata !"ap_int_base", metadata !"", metadata !20, i32 1356, metadata !49, i1 false, i1 false, i32 0, i32 0, null, i1 false} ; [ DW_TAG_subprogram ]
!49 = metadata !{i32 458773, metadata !2, metadata !"", metadata !2, i32 0, i64 0, i64 0, i64 0, i32 0, null, metadata !50, i32 0, null} ; [ DW_TAG_subroutine_type ]
!50 = metadata !{null, metadata !35, metadata !51}
!51 = metadata !{i32 458788, metadata !2, metadata !"short int", metadata !2, i32 0, i64 16, i64 16, i64 0, i32 0, i32 5} ; [ DW_TAG_base_type ]
!52 = metadata !{i32 458798, i32 0, metadata !19, metadata !"ap_int_base", metadata !"ap_int_base", metadata !"", metadata !20, i32 1357, metadata !53, i1 false, i1 false, i32 0, i32 0, null, i1 false} ; [ DW_TAG_subprogram ]
!53 = metadata !{i32 458773, metadata !2, metadata !"", metadata !2, i32 0, i64 0, i64 0, i64 0, i32 0, null, metadata !54, i32 0, null} ; [ DW_TAG_subroutine_type ]
!54 = metadata !{null, metadata !35, metadata !55}
!55 = metadata !{i32 458788, metadata !2, metadata !"short unsigned int", metadata !2, i32 0, i64 16, i64 16, i64 0, i32 0, i32 7} ; [ DW_TAG_base_type ]
!56 = metadata !{i32 458798, i32 0, metadata !19, metadata !"ap_int_base", metadata !"ap_int_base", metadata !"", metadata !20, i32 1358, metadata !57, i1 false, i1 false, i32 0, i32 0, null, i1 false} ; [ DW_TAG_subprogram ]
!57 = metadata !{i32 458773, metadata !2, metadata !"", metadata !2, i32 0, i64 0, i64 0, i64 0, i32 0, null, metadata !58, i32 0, null} ; [ DW_TAG_subroutine_type ]
!58 = metadata !{null, metadata !35, metadata !59}
!59 = metadata !{i32 458788, metadata !2, metadata !"int", metadata !2, i32 0, i64 32, i64 32, i64 0, i32 0, i32 5} ; [ DW_TAG_base_type ]
!60 = metadata !{i32 458798, i32 0, metadata !19, metadata !"ap_int_base", metadata !"ap_int_base", metadata !"", metadata !20, i32 1359, metadata !61, i1 false, i1 false, i32 0, i32 0, null, i1 false} ; [ DW_TAG_subprogram ]
!61 = metadata !{i32 458773, metadata !2, metadata !"", metadata !2, i32 0, i64 0, i64 0, i64 0, i32 0, null, metadata !62, i32 0, null} ; [ DW_TAG_subroutine_type ]
!62 = metadata !{null, metadata !35, metadata !63}
!63 = metadata !{i32 458788, metadata !2, metadata !"unsigned int", metadata !2, i32 0, i64 32, i64 32, i64 0, i32 0, i32 7} ; [ DW_TAG_base_type ]
!64 = metadata !{i32 458798, i32 0, metadata !19, metadata !"ap_int_base", metadata !"ap_int_base", metadata !"", metadata !20, i32 1360, metadata !65, i1 false, i1 false, i32 0, i32 0, null, i1 false} ; [ DW_TAG_subprogram ]
!65 = metadata !{i32 458773, metadata !2, metadata !"", metadata !2, i32 0, i64 0, i64 0, i64 0, i32 0, null, metadata !66, i32 0, null} ; [ DW_TAG_subroutine_type ]
!66 = metadata !{null, metadata !35, metadata !67}
!67 = metadata !{i32 458788, metadata !2, metadata !"long int", metadata !2, i32 0, i64 64, i64 64, i64 0, i32 0, i32 5} ; [ DW_TAG_base_type ]
!68 = metadata !{i32 458798, i32 0, metadata !19, metadata !"ap_int_base", metadata !"ap_int_base", metadata !"", metadata !20, i32 1361, metadata !69, i1 false, i1 false, i32 0, i32 0, null, i1 false} ; [ DW_TAG_subprogram ]
!69 = metadata !{i32 458773, metadata !2, metadata !"", metadata !2, i32 0, i64 0, i64 0, i64 0, i32 0, null, metadata !70, i32 0, null} ; [ DW_TAG_subroutine_type ]
!70 = metadata !{null, metadata !35, metadata !71}
!71 = metadata !{i32 458788, metadata !2, metadata !"long unsigned int", metadata !2, i32 0, i64 64, i64 64, i64 0, i32 0, i32 7} ; [ DW_TAG_base_type ]
!72 = metadata !{i32 458798, i32 0, metadata !19, metadata !"ap_int_base", metadata !"ap_int_base", metadata !"", metadata !20, i32 1362, metadata !73, i1 false, i1 false, i32 0, i32 0, null, i1 false} ; [ DW_TAG_subprogram ]
!73 = metadata !{i32 458773, metadata !2, metadata !"", metadata !2, i32 0, i64 0, i64 0, i64 0, i32 0, null, metadata !74, i32 0, null} ; [ DW_TAG_subroutine_type ]
!74 = metadata !{null, metadata !35, metadata !75}
!75 = metadata !{i32 458788, metadata !2, metadata !"long long int", metadata !2, i32 0, i64 64, i64 64, i64 0, i32 0, i32 5} ; [ DW_TAG_base_type ]
!76 = metadata !{i32 458798, i32 0, metadata !19, metadata !"ap_int_base", metadata !"ap_int_base", metadata !"", metadata !20, i32 1363, metadata !77, i1 false, i1 false, i32 0, i32 0, null, i1 false} ; [ DW_TAG_subprogram ]
!77 = metadata !{i32 458773, metadata !2, metadata !"", metadata !2, i32 0, i64 0, i64 0, i64 0, i32 0, null, metadata !78, i32 0, null} ; [ DW_TAG_subroutine_type ]
!78 = metadata !{null, metadata !35, metadata !79}
!79 = metadata !{i32 458788, metadata !2, metadata !"long long unsigned int", metadata !2, i32 0, i64 64, i64 64, i64 0, i32 0, i32 7} ; [ DW_TAG_base_type ]
!80 = metadata !{i32 458798, i32 0, metadata !19, metadata !"ap_int_base", metadata !"ap_int_base", metadata !"", metadata !20, i32 1364, metadata !81, i1 false, i1 false, i32 0, i32 0, null, i1 false} ; [ DW_TAG_subprogram ]
!81 = metadata !{i32 458773, metadata !2, metadata !"", metadata !2, i32 0, i64 0, i64 0, i64 0, i32 0, null, metadata !82, i32 0, null} ; [ DW_TAG_subroutine_type ]
!82 = metadata !{null, metadata !35, metadata !83}
!83 = metadata !{i32 458788, metadata !2, metadata !"float", metadata !2, i32 0, i64 32, i64 32, i64 0, i32 0, i32 4} ; [ DW_TAG_base_type ]
!84 = metadata !{i32 458798, i32 0, metadata !19, metadata !"ap_int_base", metadata !"ap_int_base", metadata !"", metadata !20, i32 1365, metadata !85, i1 false, i1 false, i32 0, i32 0, null, i1 false} ; [ DW_TAG_subprogram ]
!85 = metadata !{i32 458773, metadata !2, metadata !"", metadata !2, i32 0, i64 0, i64 0, i64 0, i32 0, null, metadata !86, i32 0, null} ; [ DW_TAG_subroutine_type ]
!86 = metadata !{null, metadata !35, metadata !87}
!87 = metadata !{i32 458788, metadata !2, metadata !"double", metadata !2, i32 0, i64 64, i64 64, i64 0, i32 0, i32 4} ; [ DW_TAG_base_type ]
!88 = metadata !{i32 458798, i32 0, metadata !19, metadata !"ap_int_base", metadata !"ap_int_base", metadata !"", metadata !20, i32 1392, metadata !89, i1 false, i1 false, i32 0, i32 0, null, i1 false} ; [ DW_TAG_subprogram ]
!89 = metadata !{i32 458773, metadata !2, metadata !"", metadata !2, i32 0, i64 0, i64 0, i64 0, i32 0, null, metadata !90, i32 0, null} ; [ DW_TAG_subroutine_type ]
!90 = metadata !{null, metadata !35, metadata !91}
!91 = metadata !{i32 458767, metadata !2, metadata !"", metadata !2, i32 0, i64 64, i64 64, i64 0, i32 0, metadata !92} ; [ DW_TAG_pointer_type ]
!92 = metadata !{i32 458790, metadata !2, metadata !"", metadata !2, i32 0, i64 8, i64 8, i64 0, i32 0, metadata !93} ; [ DW_TAG_const_type ]
!93 = metadata !{i32 458788, metadata !2, metadata !"char", metadata !2, i32 0, i64 8, i64 8, i64 0, i32 0, i32 6} ; [ DW_TAG_base_type ]
!94 = metadata !{i32 458798, i32 0, metadata !19, metadata !"ap_int_base", metadata !"ap_int_base", metadata !"", metadata !20, i32 1398, metadata !95, i1 false, i1 false, i32 0, i32 0, null, i1 false} ; [ DW_TAG_subprogram ]
!95 = metadata !{i32 458773, metadata !2, metadata !"", metadata !2, i32 0, i64 0, i64 0, i64 0, i32 0, null, metadata !96, i32 0, null} ; [ DW_TAG_subroutine_type ]
!96 = metadata !{null, metadata !35, metadata !91, metadata !43}
!97 = metadata !{i32 458798, i32 0, metadata !19, metadata !"read", metadata !"read", metadata !"_ZNV11ap_int_baseILi12ELb0ELb1EE4readEv", metadata !20, i32 1418, metadata !98, i1 false, i1 false, i32 0, i32 0, null, i1 false} ; [ DW_TAG_subprogram ]
!98 = metadata !{i32 458773, metadata !2, metadata !"", metadata !2, i32 0, i64 0, i64 0, i64 0, i32 0, null, metadata !99, i32 0, null} ; [ DW_TAG_subroutine_type ]
!99 = metadata !{metadata !19, metadata !100}
!100 = metadata !{i32 458767, metadata !2, metadata !"", metadata !2, i32 0, i64 64, i64 64, i64 0, i32 64, metadata !101} ; [ DW_TAG_pointer_type ]
!101 = metadata !{i32 458805, metadata !2, metadata !"", metadata !2, i32 0, i64 16, i64 16, i64 0, i32 0, metadata !19} ; [ DW_TAG_volatile_type ]
!102 = metadata !{i32 458798, i32 0, metadata !19, metadata !"write", metadata !"write", metadata !"_ZNV11ap_int_baseILi12ELb0ELb1EE5writeERKS0_", metadata !20, i32 1424, metadata !103, i1 false, i1 false, i32 0, i32 0, null, i1 false} ; [ DW_TAG_subprogram ]
!103 = metadata !{i32 458773, metadata !2, metadata !"", metadata !2, i32 0, i64 0, i64 0, i64 0, i32 0, null, metadata !104, i32 0, null} ; [ DW_TAG_subroutine_type ]
!104 = metadata !{null, metadata !100, metadata !105}
!105 = metadata !{i32 458768, metadata !2, metadata !"", metadata !2, i32 0, i64 64, i64 64, i64 0, i32 0, metadata !106} ; [ DW_TAG_reference_type ]
!106 = metadata !{i32 458790, metadata !2, metadata !"", metadata !2, i32 0, i64 16, i64 16, i64 0, i32 0, metadata !19} ; [ DW_TAG_const_type ]
!107 = metadata !{i32 458798, i32 0, metadata !19, metadata !"operator=", metadata !"operator=", metadata !"_ZNV11ap_int_baseILi12ELb0ELb1EEaSERVKS0_", metadata !20, i32 1436, metadata !108, i1 false, i1 false, i32 0, i32 0, null, i1 false} ; [ DW_TAG_subprogram ]
!108 = metadata !{i32 458773, metadata !2, metadata !"", metadata !2, i32 0, i64 0, i64 0, i64 0, i32 0, null, metadata !109, i32 0, null} ; [ DW_TAG_subroutine_type ]
!109 = metadata !{null, metadata !100, metadata !110}
!110 = metadata !{i32 458768, metadata !2, metadata !"", metadata !2, i32 0, i64 64, i64 64, i64 0, i32 0, metadata !111} ; [ DW_TAG_reference_type ]
!111 = metadata !{i32 458790, metadata !2, metadata !"", metadata !2, i32 0, i64 16, i64 16, i64 0, i32 0, metadata !101} ; [ DW_TAG_const_type ]
!112 = metadata !{i32 458798, i32 0, metadata !19, metadata !"operator=", metadata !"operator=", metadata !"_ZNV11ap_int_baseILi12ELb0ELb1EEaSERKS0_", metadata !20, i32 1445, metadata !103, i1 false, i1 false, i32 0, i32 0, null, i1 false} ; [ DW_TAG_subprogram ]
!113 = metadata !{i32 458798, i32 0, metadata !19, metadata !"operator=", metadata !"operator=", metadata !"_ZN11ap_int_baseILi12ELb0ELb1EEaSERVKS0_", metadata !20, i32 1468, metadata !114, i1 false, i1 false, i32 0, i32 0, null, i1 false} ; [ DW_TAG_subprogram ]
!114 = metadata !{i32 458773, metadata !2, metadata !"", metadata !2, i32 0, i64 0, i64 0, i64 0, i32 0, null, metadata !115, i32 0, null} ; [ DW_TAG_subroutine_type ]
!115 = metadata !{metadata !116, metadata !35, metadata !110}
!116 = metadata !{i32 458768, metadata !2, metadata !"ap_int_base<12,false,true>", metadata !2, i32 0, i64 64, i64 64, i64 0, i32 0, metadata !19} ; [ DW_TAG_reference_type ]
!117 = metadata !{i32 458798, i32 0, metadata !19, metadata !"operator=", metadata !"operator=", metadata !"_ZN11ap_int_baseILi12ELb0ELb1EEaSERKS0_", metadata !20, i32 1473, metadata !118, i1 false, i1 false, i32 0, i32 0, null, i1 false} ; [ DW_TAG_subprogram ]
!118 = metadata !{i32 458773, metadata !2, metadata !"", metadata !2, i32 0, i64 0, i64 0, i64 0, i32 0, null, metadata !119, i32 0, null} ; [ DW_TAG_subroutine_type ]
!119 = metadata !{metadata !116, metadata !35, metadata !105}
!120 = metadata !{i32 458798, i32 0, metadata !19, metadata !"operator=", metadata !"operator=", metadata !"_ZN11ap_int_baseILi12ELb0ELb1EEaSEPKc", metadata !20, i32 1477, metadata !121, i1 false, i1 false, i32 0, i32 0, null, i1 false} ; [ DW_TAG_subprogram ]
!121 = metadata !{i32 458773, metadata !2, metadata !"", metadata !2, i32 0, i64 0, i64 0, i64 0, i32 0, null, metadata !122, i32 0, null} ; [ DW_TAG_subroutine_type ]
!122 = metadata !{metadata !116, metadata !35, metadata !91}
!123 = metadata !{i32 458798, i32 0, metadata !19, metadata !"set", metadata !"set", metadata !"_ZN11ap_int_baseILi12ELb0ELb1EE3setEPKca", metadata !20, i32 1484, metadata !124, i1 false, i1 false, i32 0, i32 0, null, i1 false} ; [ DW_TAG_subprogram ]
!124 = metadata !{i32 458773, metadata !2, metadata !"", metadata !2, i32 0, i64 0, i64 0, i64 0, i32 0, null, metadata !125, i32 0, null} ; [ DW_TAG_subroutine_type ]
!125 = metadata !{metadata !116, metadata !35, metadata !91, metadata !43}
!126 = metadata !{i32 458798, i32 0, metadata !19, metadata !"operator=", metadata !"operator=", metadata !"_ZN11ap_int_baseILi12ELb0ELb1EEaSEy", metadata !20, i32 1492, metadata !127, i1 false, i1 false, i32 0, i32 0, null, i1 false} ; [ DW_TAG_subprogram ]
!127 = metadata !{i32 458773, metadata !2, metadata !"", metadata !2, i32 0, i64 0, i64 0, i64 0, i32 0, null, metadata !128, i32 0, null} ; [ DW_TAG_subroutine_type ]
!128 = metadata !{metadata !116, metadata !35, metadata !79}
!129 = metadata !{i32 458798, i32 0, metadata !19, metadata !"operator=", metadata !"operator=", metadata !"_ZN11ap_int_baseILi12ELb0ELb1EEaSEx", metadata !20, i32 1497, metadata !130, i1 false, i1 false, i32 0, i32 0, null, i1 false} ; [ DW_TAG_subprogram ]
!130 = metadata !{i32 458773, metadata !2, metadata !"", metadata !2, i32 0, i64 0, i64 0, i64 0, i32 0, null, metadata !131, i32 0, null} ; [ DW_TAG_subroutine_type ]
!131 = metadata !{metadata !116, metadata !35, metadata !75}
!132 = metadata !{i32 458798, i32 0, metadata !19, metadata !"operator ap_ulong", metadata !"operator ap_ulong", metadata !"_ZNK11ap_int_baseILi12ELb0ELb1EEcvyEv", metadata !20, i32 1538, metadata !133, i1 false, i1 true, i32 0, i32 0, null, i1 false} ; [ DW_TAG_subprogram ]
!133 = metadata !{i32 458773, metadata !2, metadata !"", metadata !2, i32 0, i64 0, i64 0, i64 0, i32 0, null, metadata !134, i32 0, null} ; [ DW_TAG_subroutine_type ]
!134 = metadata !{metadata !135, metadata !137}
!135 = metadata !{i32 458774, metadata !2, metadata !"ap_ulong", metadata !136, i32 332, i64 0, i64 0, i64 0, i32 0, metadata !79} ; [ DW_TAG_typedef ]
!136 = metadata !{i32 458769, i32 0, i32 4, metadata !"math.h", metadata !"/usr/include", metadata !"4.2.1 (Based on Apple Inc. build 5658) (LLVM build 2.7)", i1 false, i1 false, metadata !"", i32 0} ; [ DW_TAG_compile_unit ]
!137 = metadata !{i32 458767, metadata !2, metadata !"", metadata !2, i32 0, i64 64, i64 64, i64 0, i32 64, metadata !106} ; [ DW_TAG_pointer_type ]
!138 = metadata !{i32 458798, i32 0, metadata !19, metadata !"to_bool", metadata !"to_bool", metadata !"_ZNK11ap_int_baseILi12ELb0ELb1EE7to_boolEv", metadata !20, i32 1544, metadata !139, i1 false, i1 false, i32 0, i32 0, null, i1 false} ; [ DW_TAG_subprogram ]
!139 = metadata !{i32 458773, metadata !2, metadata !"", metadata !2, i32 0, i64 0, i64 0, i64 0, i32 0, null, metadata !140, i32 0, null} ; [ DW_TAG_subroutine_type ]
!140 = metadata !{metadata !39, metadata !137}
!141 = metadata !{i32 458798, i32 0, metadata !19, metadata !"to_int", metadata !"to_int", metadata !"_ZNK11ap_int_baseILi12ELb0ELb1EE6to_intEv", metadata !20, i32 1545, metadata !142, i1 false, i1 false, i32 0, i32 0, null, i1 false} ; [ DW_TAG_subprogram ]
!142 = metadata !{i32 458773, metadata !2, metadata !"", metadata !2, i32 0, i64 0, i64 0, i64 0, i32 0, null, metadata !143, i32 0, null} ; [ DW_TAG_subroutine_type ]
!143 = metadata !{metadata !59, metadata !137}
!144 = metadata !{i32 458798, i32 0, metadata !19, metadata !"to_uint", metadata !"to_uint", metadata !"_ZNK11ap_int_baseILi12ELb0ELb1EE7to_uintEv", metadata !20, i32 1546, metadata !145, i1 false, i1 false, i32 0, i32 0, null, i1 false} ; [ DW_TAG_subprogram ]
!145 = metadata !{i32 458773, metadata !2, metadata !"", metadata !2, i32 0, i64 0, i64 0, i64 0, i32 0, null, metadata !146, i32 0, null} ; [ DW_TAG_subroutine_type ]
!146 = metadata !{metadata !63, metadata !137}
!147 = metadata !{i32 458798, i32 0, metadata !19, metadata !"to_long", metadata !"to_long", metadata !"_ZNK11ap_int_baseILi12ELb0ELb1EE7to_longEv", metadata !20, i32 1547, metadata !148, i1 false, i1 false, i32 0, i32 0, null, i1 false} ; [ DW_TAG_subprogram ]
!148 = metadata !{i32 458773, metadata !2, metadata !"", metadata !2, i32 0, i64 0, i64 0, i64 0, i32 0, null, metadata !149, i32 0, null} ; [ DW_TAG_subroutine_type ]
!149 = metadata !{metadata !67, metadata !137}
!150 = metadata !{i32 458798, i32 0, metadata !19, metadata !"to_ulong", metadata !"to_ulong", metadata !"_ZNK11ap_int_baseILi12ELb0ELb1EE8to_ulongEv", metadata !20, i32 1548, metadata !151, i1 false, i1 false, i32 0, i32 0, null, i1 false} ; [ DW_TAG_subprogram ]
!151 = metadata !{i32 458773, metadata !2, metadata !"", metadata !2, i32 0, i64 0, i64 0, i64 0, i32 0, null, metadata !152, i32 0, null} ; [ DW_TAG_subroutine_type ]
!152 = metadata !{metadata !71, metadata !137}
!153 = metadata !{i32 458798, i32 0, metadata !19, metadata !"to_int64", metadata !"to_int64", metadata !"_ZNK11ap_int_baseILi12ELb0ELb1EE8to_int64Ev", metadata !20, i32 1549, metadata !154, i1 false, i1 false, i32 0, i32 0, null, i1 false} ; [ DW_TAG_subprogram ]
!154 = metadata !{i32 458773, metadata !2, metadata !"", metadata !2, i32 0, i64 0, i64 0, i64 0, i32 0, null, metadata !155, i32 0, null} ; [ DW_TAG_subroutine_type ]
!155 = metadata !{metadata !156, metadata !137}
!156 = metadata !{i32 458774, metadata !2, metadata !"ap_slong", metadata !20, i32 65, i64 0, i64 0, i64 0, i32 0, metadata !75} ; [ DW_TAG_typedef ]
!157 = metadata !{i32 458798, i32 0, metadata !19, metadata !"to_uint64", metadata !"to_uint64", metadata !"_ZNK11ap_int_baseILi12ELb0ELb1EE9to_uint64Ev", metadata !20, i32 1550, metadata !133, i1 false, i1 false, i32 0, i32 0, null, i1 false} ; [ DW_TAG_subprogram ]
!158 = metadata !{i32 458798, i32 0, metadata !19, metadata !"to_double", metadata !"to_double", metadata !"_ZNK11ap_int_baseILi12ELb0ELb1EE9to_doubleEv", metadata !20, i32 1551, metadata !159, i1 false, i1 false, i32 0, i32 0, null, i1 false} ; [ DW_TAG_subprogram ]
!159 = metadata !{i32 458773, metadata !2, metadata !"", metadata !2, i32 0, i64 0, i64 0, i64 0, i32 0, null, metadata !160, i32 0, null} ; [ DW_TAG_subroutine_type ]
!160 = metadata !{metadata !87, metadata !137}
!161 = metadata !{i32 458798, i32 0, metadata !19, metadata !"length", metadata !"length", metadata !"_ZNK11ap_int_baseILi12ELb0ELb1EE6lengthEv", metadata !20, i32 1564, metadata !142, i1 false, i1 false, i32 0, i32 0, null, i1 false} ; [ DW_TAG_subprogram ]
!162 = metadata !{i32 458798, i32 0, metadata !19, metadata !"length", metadata !"length", metadata !"_ZNVK11ap_int_baseILi12ELb0ELb1EE6lengthEv", metadata !20, i32 1565, metadata !163, i1 false, i1 false, i32 0, i32 0, null, i1 false} ; [ DW_TAG_subprogram ]
!163 = metadata !{i32 458773, metadata !2, metadata !"", metadata !2, i32 0, i64 0, i64 0, i64 0, i32 0, null, metadata !164, i32 0, null} ; [ DW_TAG_subroutine_type ]
!164 = metadata !{metadata !59, metadata !165}
!165 = metadata !{i32 458767, metadata !2, metadata !"", metadata !2, i32 0, i64 64, i64 64, i64 0, i32 64, metadata !111} ; [ DW_TAG_pointer_type ]
!166 = metadata !{i32 458798, i32 0, metadata !19, metadata !"reverse", metadata !"reverse", metadata !"_ZN11ap_int_baseILi12ELb0ELb1EE7reverseEv", metadata !20, i32 1570, metadata !167, i1 false, i1 false, i32 0, i32 0, null, i1 false} ; [ DW_TAG_subprogram ]
!167 = metadata !{i32 458773, metadata !2, metadata !"", metadata !2, i32 0, i64 0, i64 0, i64 0, i32 0, null, metadata !168, i32 0, null} ; [ DW_TAG_subroutine_type ]
!168 = metadata !{metadata !116, metadata !35}
!169 = metadata !{i32 458798, i32 0, metadata !19, metadata !"iszero", metadata !"iszero", metadata !"_ZNK11ap_int_baseILi12ELb0ELb1EE6iszeroEv", metadata !20, i32 1576, metadata !139, i1 false, i1 false, i32 0, i32 0, null, i1 false} ; [ DW_TAG_subprogram ]
!170 = metadata !{i32 458798, i32 0, metadata !19, metadata !"is_zero", metadata !"is_zero", metadata !"_ZNK11ap_int_baseILi12ELb0ELb1EE7is_zeroEv", metadata !20, i32 1581, metadata !139, i1 false, i1 false, i32 0, i32 0, null, i1 false} ; [ DW_TAG_subprogram ]
!171 = metadata !{i32 458798, i32 0, metadata !19, metadata !"sign", metadata !"sign", metadata !"_ZNK11ap_int_baseILi12ELb0ELb1EE4signEv", metadata !20, i32 1586, metadata !139, i1 false, i1 false, i32 0, i32 0, null, i1 false} ; [ DW_TAG_subprogram ]
!172 = metadata !{i32 458798, i32 0, metadata !19, metadata !"clear", metadata !"clear", metadata !"_ZN11ap_int_baseILi12ELb0ELb1EE5clearEi", metadata !20, i32 1594, metadata !57, i1 false, i1 false, i32 0, i32 0, null, i1 false} ; [ DW_TAG_subprogram ]
!173 = metadata !{i32 458798, i32 0, metadata !19, metadata !"invert", metadata !"invert", metadata !"_ZN11ap_int_baseILi12ELb0ELb1EE6invertEi", metadata !20, i32 1600, metadata !57, i1 false, i1 false, i32 0, i32 0, null, i1 false} ; [ DW_TAG_subprogram ]
!174 = metadata !{i32 458798, i32 0, metadata !19, metadata !"test", metadata !"test", metadata !"_ZNK11ap_int_baseILi12ELb0ELb1EE4testEi", metadata !20, i32 1608, metadata !175, i1 false, i1 false, i32 0, i32 0, null, i1 false} ; [ DW_TAG_subprogram ]
!175 = metadata !{i32 458773, metadata !2, metadata !"", metadata !2, i32 0, i64 0, i64 0, i64 0, i32 0, null, metadata !176, i32 0, null} ; [ DW_TAG_subroutine_type ]
!176 = metadata !{metadata !39, metadata !137, metadata !59}
!177 = metadata !{i32 458798, i32 0, metadata !19, metadata !"set", metadata !"set", metadata !"_ZN11ap_int_baseILi12ELb0ELb1EE3setEi", metadata !20, i32 1614, metadata !57, i1 false, i1 false, i32 0, i32 0, null, i1 false} ; [ DW_TAG_subprogram ]
!178 = metadata !{i32 458798, i32 0, metadata !19, metadata !"set", metadata !"set", metadata !"_ZN11ap_int_baseILi12ELb0ELb1EE3setEib", metadata !20, i32 1620, metadata !179, i1 false, i1 false, i32 0, i32 0, null, i1 false} ; [ DW_TAG_subprogram ]
!179 = metadata !{i32 458773, metadata !2, metadata !"", metadata !2, i32 0, i64 0, i64 0, i64 0, i32 0, null, metadata !180, i32 0, null} ; [ DW_TAG_subroutine_type ]
!180 = metadata !{null, metadata !35, metadata !59, metadata !39}
!181 = metadata !{i32 458798, i32 0, metadata !19, metadata !"lrotate", metadata !"lrotate", metadata !"_ZN11ap_int_baseILi12ELb0ELb1EE7lrotateEi", metadata !20, i32 1627, metadata !57, i1 false, i1 false, i32 0, i32 0, null, i1 false} ; [ DW_TAG_subprogram ]
!182 = metadata !{i32 458798, i32 0, metadata !19, metadata !"rrotate", metadata !"rrotate", metadata !"_ZN11ap_int_baseILi12ELb0ELb1EE7rrotateEi", metadata !20, i32 1636, metadata !57, i1 false, i1 false, i32 0, i32 0, null, i1 false} ; [ DW_TAG_subprogram ]
!183 = metadata !{i32 458798, i32 0, metadata !19, metadata !"set_bit", metadata !"set_bit", metadata !"_ZN11ap_int_baseILi12ELb0ELb1EE7set_bitEib", metadata !20, i32 1644, metadata !179, i1 false, i1 false, i32 0, i32 0, null, i1 false} ; [ DW_TAG_subprogram ]
!184 = metadata !{i32 458798, i32 0, metadata !19, metadata !"get_bit", metadata !"get_bit", metadata !"_ZNK11ap_int_baseILi12ELb0ELb1EE7get_bitEi", metadata !20, i32 1649, metadata !175, i1 false, i1 false, i32 0, i32 0, null, i1 false} ; [ DW_TAG_subprogram ]
!185 = metadata !{i32 458798, i32 0, metadata !19, metadata !"b_not", metadata !"b_not", metadata !"_ZN11ap_int_baseILi12ELb0ELb1EE5b_notEv", metadata !20, i32 1654, metadata !33, i1 false, i1 false, i32 0, i32 0, null, i1 false} ; [ DW_TAG_subprogram ]
!186 = metadata !{i32 458798, i32 0, metadata !19, metadata !"countLeadingZeros", metadata !"countLeadingZeros", metadata !"_ZN11ap_int_baseILi12ELb0ELb1EE17countLeadingZerosEv", metadata !20, i32 1661, metadata !187, i1 false, i1 false, i32 0, i32 0, null, i1 false} ; [ DW_TAG_subprogram ]
!187 = metadata !{i32 458773, metadata !2, metadata !"", metadata !2, i32 0, i64 0, i64 0, i64 0, i32 0, null, metadata !188, i32 0, null} ; [ DW_TAG_subroutine_type ]
!188 = metadata !{metadata !59, metadata !35}
!189 = metadata !{i32 458798, i32 0, metadata !19, metadata !"operator++", metadata !"operator++", metadata !"_ZN11ap_int_baseILi12ELb0ELb1EEppEv", metadata !20, i32 1718, metadata !167, i1 false, i1 false, i32 0, i32 0, null, i1 false} ; [ DW_TAG_subprogram ]
!190 = metadata !{i32 458798, i32 0, metadata !19, metadata !"operator--", metadata !"operator--", metadata !"_ZN11ap_int_baseILi12ELb0ELb1EEmmEv", metadata !20, i32 1722, metadata !167, i1 false, i1 false, i32 0, i32 0, null, i1 false} ; [ DW_TAG_subprogram ]
!191 = metadata !{i32 458798, i32 0, metadata !19, metadata !"operator++", metadata !"operator++", metadata !"_ZN11ap_int_baseILi12ELb0ELb1EEppEi", metadata !20, i32 1730, metadata !192, i1 false, i1 true, i32 0, i32 0, null, i1 false} ; [ DW_TAG_subprogram ]
!192 = metadata !{i32 458773, metadata !2, metadata !"", metadata !2, i32 0, i64 0, i64 0, i64 0, i32 0, null, metadata !193, i32 0, null} ; [ DW_TAG_subroutine_type ]
!193 = metadata !{metadata !106, metadata !35, metadata !59}
!194 = metadata !{i32 458798, i32 0, metadata !19, metadata !"operator--", metadata !"operator--", metadata !"_ZN11ap_int_baseILi12ELb0ELb1EEmmEi", metadata !20, i32 1735, metadata !192, i1 false, i1 false, i32 0, i32 0, null, i1 false} ; [ DW_TAG_subprogram ]
!195 = metadata !{i32 458798, i32 0, metadata !19, metadata !"operator+", metadata !"operator+", metadata !"_ZNK11ap_int_baseILi12ELb0ELb1EEpsEv", metadata !20, i32 1744, metadata !196, i1 false, i1 false, i32 0, i32 0, null, i1 false} ; [ DW_TAG_subprogram ]
!196 = metadata !{i32 458773, metadata !2, metadata !"", metadata !2, i32 0, i64 0, i64 0, i64 0, i32 0, null, metadata !197, i32 0, null} ; [ DW_TAG_subroutine_type ]
!197 = metadata !{metadata !19, metadata !137}
!198 = metadata !{i32 458798, i32 0, metadata !19, metadata !"operator!", metadata !"operator!", metadata !"_ZNK11ap_int_baseILi12ELb0ELb1EEntEv", metadata !20, i32 1750, metadata !139, i1 false, i1 false, i32 0, i32 0, null, i1 false} ; [ DW_TAG_subprogram ]
!199 = metadata !{i32 458798, i32 0, metadata !19, metadata !"range", metadata !"range", metadata !"_ZN11ap_int_baseILi12ELb0ELb1EE5rangeEii", metadata !20, i32 1877, metadata !200, i1 false, i1 false, i32 0, i32 0, null, i1 false} ; [ DW_TAG_subprogram ]
!200 = metadata !{i32 458773, metadata !2, metadata !"", metadata !2, i32 0, i64 0, i64 0, i64 0, i32 0, null, metadata !201, i32 0, null} ; [ DW_TAG_subroutine_type ]
!201 = metadata !{metadata !202, metadata !35, metadata !59, metadata !59}
!202 = metadata !{i32 458771, metadata !2, metadata !"ap_range_ref<12,false>", metadata !20, i32 872, i64 0, i64 0, i64 0, i32 4, null, null, i32 0, null} ; [ DW_TAG_structure_type ]
!203 = metadata !{i32 458798, i32 0, metadata !19, metadata !"operator()", metadata !"operator()", metadata !"_ZN11ap_int_baseILi12ELb0ELb1EEclEii", metadata !20, i32 1883, metadata !200, i1 false, i1 false, i32 0, i32 0, null, i1 false} ; [ DW_TAG_subprogram ]
!204 = metadata !{i32 458798, i32 0, metadata !19, metadata !"range", metadata !"range", metadata !"_ZNK11ap_int_baseILi12ELb0ELb1EE5rangeEii", metadata !20, i32 1889, metadata !205, i1 false, i1 false, i32 0, i32 0, null, i1 false} ; [ DW_TAG_subprogram ]
!205 = metadata !{i32 458773, metadata !2, metadata !"", metadata !2, i32 0, i64 0, i64 0, i64 0, i32 0, null, metadata !206, i32 0, null} ; [ DW_TAG_subroutine_type ]
!206 = metadata !{metadata !202, metadata !137, metadata !59, metadata !59}
!207 = metadata !{i32 458798, i32 0, metadata !19, metadata !"operator()", metadata !"operator()", metadata !"_ZNK11ap_int_baseILi12ELb0ELb1EEclEii", metadata !20, i32 1895, metadata !205, i1 false, i1 false, i32 0, i32 0, null, i1 false} ; [ DW_TAG_subprogram ]
!208 = metadata !{i32 458798, i32 0, metadata !19, metadata !"operator[]", metadata !"operator[]", metadata !"_ZN11ap_int_baseILi12ELb0ELb1EEixEi", metadata !20, i32 1914, metadata !209, i1 false, i1 false, i32 0, i32 0, null, i1 false} ; [ DW_TAG_subprogram ]
!209 = metadata !{i32 458773, metadata !2, metadata !"", metadata !2, i32 0, i64 0, i64 0, i64 0, i32 0, null, metadata !210, i32 0, null} ; [ DW_TAG_subroutine_type ]
!210 = metadata !{metadata !211, metadata !35, metadata !59}
!211 = metadata !{i32 458771, metadata !2, metadata !"ap_bit_ref<12,false>", metadata !20, i32 1116, i64 0, i64 0, i64 0, i32 4, null, null, i32 0, null} ; [ DW_TAG_structure_type ]
!212 = metadata !{i32 458798, i32 0, metadata !19, metadata !"operator[]", metadata !"operator[]", metadata !"_ZNK11ap_int_baseILi12ELb0ELb1EEixEi", metadata !20, i32 1928, metadata !175, i1 false, i1 false, i32 0, i32 0, null, i1 false} ; [ DW_TAG_subprogram ]
!213 = metadata !{i32 458798, i32 0, metadata !19, metadata !"bit", metadata !"bit", metadata !"_ZN11ap_int_baseILi12ELb0ELb1EE3bitEi", metadata !20, i32 1942, metadata !209, i1 false, i1 false, i32 0, i32 0, null, i1 false} ; [ DW_TAG_subprogram ]
!214 = metadata !{i32 458798, i32 0, metadata !19, metadata !"bit", metadata !"bit", metadata !"_ZNK11ap_int_baseILi12ELb0ELb1EE3bitEi", metadata !20, i32 1956, metadata !175, i1 false, i1 false, i32 0, i32 0, null, i1 false} ; [ DW_TAG_subprogram ]
!215 = metadata !{i32 458798, i32 0, metadata !19, metadata !"and_reduce", metadata !"and_reduce", metadata !"_ZN11ap_int_baseILi12ELb0ELb1EE10and_reduceEv", metadata !20, i32 2136, metadata !216, i1 false, i1 false, i32 0, i32 0, null, i1 false} ; [ DW_TAG_subprogram ]
!216 = metadata !{i32 458773, metadata !2, metadata !"", metadata !2, i32 0, i64 0, i64 0, i64 0, i32 0, null, metadata !217, i32 0, null} ; [ DW_TAG_subroutine_type ]
!217 = metadata !{metadata !39, metadata !35}
!218 = metadata !{i32 458798, i32 0, metadata !19, metadata !"nand_reduce", metadata !"nand_reduce", metadata !"_ZN11ap_int_baseILi12ELb0ELb1EE11nand_reduceEv", metadata !20, i32 2139, metadata !216, i1 false, i1 false, i32 0, i32 0, null, i1 false} ; [ DW_TAG_subprogram ]
!219 = metadata !{i32 458798, i32 0, metadata !19, metadata !"or_reduce", metadata !"or_reduce", metadata !"_ZN11ap_int_baseILi12ELb0ELb1EE9or_reduceEv", metadata !20, i32 2142, metadata !216, i1 false, i1 false, i32 0, i32 0, null, i1 false} ; [ DW_TAG_subprogram ]
!220 = metadata !{i32 458798, i32 0, metadata !19, metadata !"nor_reduce", metadata !"nor_reduce", metadata !"_ZN11ap_int_baseILi12ELb0ELb1EE10nor_reduceEv", metadata !20, i32 2145, metadata !216, i1 false, i1 false, i32 0, i32 0, null, i1 false} ; [ DW_TAG_subprogram ]
!221 = metadata !{i32 458798, i32 0, metadata !19, metadata !"xor_reduce", metadata !"xor_reduce", metadata !"_ZN11ap_int_baseILi12ELb0ELb1EE10xor_reduceEv", metadata !20, i32 2148, metadata !216, i1 false, i1 false, i32 0, i32 0, null, i1 false} ; [ DW_TAG_subprogram ]
!222 = metadata !{i32 458798, i32 0, metadata !19, metadata !"xnor_reduce", metadata !"xnor_reduce", metadata !"_ZN11ap_int_baseILi12ELb0ELb1EE11xnor_reduceEv", metadata !20, i32 2151, metadata !216, i1 false, i1 false, i32 0, i32 0, null, i1 false} ; [ DW_TAG_subprogram ]
!223 = metadata !{i32 458798, i32 0, metadata !19, metadata !"and_reduce", metadata !"and_reduce", metadata !"_ZNK11ap_int_baseILi12ELb0ELb1EE10and_reduceEv", metadata !20, i32 2155, metadata !139, i1 false, i1 false, i32 0, i32 0, null, i1 false} ; [ DW_TAG_subprogram ]
!224 = metadata !{i32 458798, i32 0, metadata !19, metadata !"nand_reduce", metadata !"nand_reduce", metadata !"_ZNK11ap_int_baseILi12ELb0ELb1EE11nand_reduceEv", metadata !20, i32 2158, metadata !139, i1 false, i1 false, i32 0, i32 0, null, i1 false} ; [ DW_TAG_subprogram ]
!225 = metadata !{i32 458798, i32 0, metadata !19, metadata !"or_reduce", metadata !"or_reduce", metadata !"_ZNK11ap_int_baseILi12ELb0ELb1EE9or_reduceEv", metadata !20, i32 2161, metadata !139, i1 false, i1 false, i32 0, i32 0, null, i1 false} ; [ DW_TAG_subprogram ]
!226 = metadata !{i32 458798, i32 0, metadata !19, metadata !"nor_reduce", metadata !"nor_reduce", metadata !"_ZNK11ap_int_baseILi12ELb0ELb1EE10nor_reduceEv", metadata !20, i32 2164, metadata !139, i1 false, i1 false, i32 0, i32 0, null, i1 false} ; [ DW_TAG_subprogram ]
!227 = metadata !{i32 458798, i32 0, metadata !19, metadata !"xor_reduce", metadata !"xor_reduce", metadata !"_ZNK11ap_int_baseILi12ELb0ELb1EE10xor_reduceEv", metadata !20, i32 2167, metadata !139, i1 false, i1 false, i32 0, i32 0, null, i1 false} ; [ DW_TAG_subprogram ]
!228 = metadata !{i32 458798, i32 0, metadata !19, metadata !"xnor_reduce", metadata !"xnor_reduce", metadata !"_ZNK11ap_int_baseILi12ELb0ELb1EE11xnor_reduceEv", metadata !20, i32 2170, metadata !139, i1 false, i1 false, i32 0, i32 0, null, i1 false} ; [ DW_TAG_subprogram ]
!229 = metadata !{i32 458798, i32 0, metadata !19, metadata !"to_string", metadata !"to_string", metadata !"_ZNK11ap_int_baseILi12ELb0ELb1EE9to_stringEPci8BaseModeb", metadata !20, i32 2177, metadata !230, i1 false, i1 false, i32 0, i32 0, null, i1 false} ; [ DW_TAG_subprogram ]
!230 = metadata !{i32 458773, metadata !2, metadata !"", metadata !2, i32 0, i64 0, i64 0, i64 0, i32 0, null, metadata !231, i32 0, null} ; [ DW_TAG_subroutine_type ]
!231 = metadata !{null, metadata !137, metadata !232, metadata !59, metadata !233, metadata !39}
!232 = metadata !{i32 458767, metadata !2, metadata !"", metadata !2, i32 0, i64 64, i64 64, i64 0, i32 0, metadata !93} ; [ DW_TAG_pointer_type ]
!233 = metadata !{i32 458756, metadata !2, metadata !"BaseMode", metadata !20, i32 551, i64 32, i64 32, i64 0, i32 0, null, metadata !234, i32 0, null} ; [ DW_TAG_enumeration_type ]
!234 = metadata !{metadata !235, metadata !236, metadata !237, metadata !238}
!235 = metadata !{i32 458792, metadata !"SC_BIN", i64 2} ; [ DW_TAG_enumerator ]
!236 = metadata !{i32 458792, metadata !"SC_OCT", i64 8} ; [ DW_TAG_enumerator ]
!237 = metadata !{i32 458792, metadata !"SC_DEC", i64 10} ; [ DW_TAG_enumerator ]
!238 = metadata !{i32 458792, metadata !"SC_HEX", i64 16} ; [ DW_TAG_enumerator ]
!239 = metadata !{i32 458798, i32 0, metadata !19, metadata !"to_string", metadata !"to_string", metadata !"_ZNK11ap_int_baseILi12ELb0ELb1EE9to_stringE8BaseModeb", metadata !20, i32 2204, metadata !240, i1 false, i1 false, i32 0, i32 0, null, i1 false} ; [ DW_TAG_subprogram ]
!240 = metadata !{i32 458773, metadata !2, metadata !"", metadata !2, i32 0, i64 0, i64 0, i64 0, i32 0, null, metadata !241, i32 0, null} ; [ DW_TAG_subroutine_type ]
!241 = metadata !{metadata !232, metadata !137, metadata !233, metadata !39}
!242 = metadata !{i32 458798, i32 0, metadata !19, metadata !"to_string", metadata !"to_string", metadata !"_ZNK11ap_int_baseILi12ELb0ELb1EE9to_stringEab", metadata !20, i32 2208, metadata !243, i1 false, i1 false, i32 0, i32 0, null, i1 false} ; [ DW_TAG_subprogram ]
!243 = metadata !{i32 458773, metadata !2, metadata !"", metadata !2, i32 0, i64 0, i64 0, i64 0, i32 0, null, metadata !244, i32 0, null} ; [ DW_TAG_subroutine_type ]
!244 = metadata !{metadata !232, metadata !137, metadata !43, metadata !39}
!245 = metadata !{i32 458798, i32 0, metadata !15, metadata !"ap_uint", metadata !"ap_uint", metadata !"", metadata !16, i32 137, metadata !246, i1 false, i1 false, i32 0, i32 0, null, i1 false} ; [ DW_TAG_subprogram ]
!246 = metadata !{i32 458773, metadata !2, metadata !"", metadata !2, i32 0, i64 0, i64 0, i64 0, i32 0, null, metadata !247, i32 0, null} ; [ DW_TAG_subroutine_type ]
!247 = metadata !{null, metadata !248}
!248 = metadata !{i32 458767, metadata !2, metadata !"", metadata !2, i32 0, i64 64, i64 64, i64 0, i32 64, metadata !15} ; [ DW_TAG_pointer_type ]
!249 = metadata !{i32 458798, i32 0, metadata !15, metadata !"ap_uint", metadata !"ap_uint", metadata !"", metadata !16, i32 199, metadata !250, i1 false, i1 false, i32 0, i32 0, null, i1 false} ; [ DW_TAG_subprogram ]
!250 = metadata !{i32 458773, metadata !2, metadata !"", metadata !2, i32 0, i64 0, i64 0, i64 0, i32 0, null, metadata !251, i32 0, null} ; [ DW_TAG_subroutine_type ]
!251 = metadata !{null, metadata !248, metadata !39}
!252 = metadata !{i32 458798, i32 0, metadata !15, metadata !"ap_uint", metadata !"ap_uint", metadata !"", metadata !16, i32 200, metadata !253, i1 false, i1 false, i32 0, i32 0, null, i1 false} ; [ DW_TAG_subprogram ]
!253 = metadata !{i32 458773, metadata !2, metadata !"", metadata !2, i32 0, i64 0, i64 0, i64 0, i32 0, null, metadata !254, i32 0, null} ; [ DW_TAG_subroutine_type ]
!254 = metadata !{null, metadata !248, metadata !43}
!255 = metadata !{i32 458798, i32 0, metadata !15, metadata !"ap_uint", metadata !"ap_uint", metadata !"", metadata !16, i32 201, metadata !256, i1 false, i1 false, i32 0, i32 0, null, i1 false} ; [ DW_TAG_subprogram ]
!256 = metadata !{i32 458773, metadata !2, metadata !"", metadata !2, i32 0, i64 0, i64 0, i64 0, i32 0, null, metadata !257, i32 0, null} ; [ DW_TAG_subroutine_type ]
!257 = metadata !{null, metadata !248, metadata !47}
!258 = metadata !{i32 458798, i32 0, metadata !15, metadata !"ap_uint", metadata !"ap_uint", metadata !"", metadata !16, i32 202, metadata !259, i1 false, i1 false, i32 0, i32 0, null, i1 false} ; [ DW_TAG_subprogram ]
!259 = metadata !{i32 458773, metadata !2, metadata !"", metadata !2, i32 0, i64 0, i64 0, i64 0, i32 0, null, metadata !260, i32 0, null} ; [ DW_TAG_subroutine_type ]
!260 = metadata !{null, metadata !248, metadata !51}
!261 = metadata !{i32 458798, i32 0, metadata !15, metadata !"ap_uint", metadata !"ap_uint", metadata !"", metadata !16, i32 203, metadata !262, i1 false, i1 false, i32 0, i32 0, null, i1 false} ; [ DW_TAG_subprogram ]
!262 = metadata !{i32 458773, metadata !2, metadata !"", metadata !2, i32 0, i64 0, i64 0, i64 0, i32 0, null, metadata !263, i32 0, null} ; [ DW_TAG_subroutine_type ]
!263 = metadata !{null, metadata !248, metadata !55}
!264 = metadata !{i32 458798, i32 0, metadata !15, metadata !"ap_uint", metadata !"ap_uint", metadata !"", metadata !16, i32 204, metadata !265, i1 false, i1 false, i32 0, i32 0, null, i1 false} ; [ DW_TAG_subprogram ]
!265 = metadata !{i32 458773, metadata !2, metadata !"", metadata !2, i32 0, i64 0, i64 0, i64 0, i32 0, null, metadata !266, i32 0, null} ; [ DW_TAG_subroutine_type ]
!266 = metadata !{null, metadata !248, metadata !59}
!267 = metadata !{i32 458798, i32 0, metadata !15, metadata !"ap_uint", metadata !"ap_uint", metadata !"", metadata !16, i32 205, metadata !268, i1 false, i1 false, i32 0, i32 0, null, i1 false} ; [ DW_TAG_subprogram ]
!268 = metadata !{i32 458773, metadata !2, metadata !"", metadata !2, i32 0, i64 0, i64 0, i64 0, i32 0, null, metadata !269, i32 0, null} ; [ DW_TAG_subroutine_type ]
!269 = metadata !{null, metadata !248, metadata !63}
!270 = metadata !{i32 458798, i32 0, metadata !15, metadata !"ap_uint", metadata !"ap_uint", metadata !"", metadata !16, i32 206, metadata !271, i1 false, i1 false, i32 0, i32 0, null, i1 false} ; [ DW_TAG_subprogram ]
!271 = metadata !{i32 458773, metadata !2, metadata !"", metadata !2, i32 0, i64 0, i64 0, i64 0, i32 0, null, metadata !272, i32 0, null} ; [ DW_TAG_subroutine_type ]
!272 = metadata !{null, metadata !248, metadata !67}
!273 = metadata !{i32 458798, i32 0, metadata !15, metadata !"ap_uint", metadata !"ap_uint", metadata !"", metadata !16, i32 207, metadata !274, i1 false, i1 false, i32 0, i32 0, null, i1 false} ; [ DW_TAG_subprogram ]
!274 = metadata !{i32 458773, metadata !2, metadata !"", metadata !2, i32 0, i64 0, i64 0, i64 0, i32 0, null, metadata !275, i32 0, null} ; [ DW_TAG_subroutine_type ]
!275 = metadata !{null, metadata !248, metadata !71}
!276 = metadata !{i32 458798, i32 0, metadata !15, metadata !"ap_uint", metadata !"ap_uint", metadata !"", metadata !16, i32 208, metadata !277, i1 false, i1 false, i32 0, i32 0, null, i1 false} ; [ DW_TAG_subprogram ]
!277 = metadata !{i32 458773, metadata !2, metadata !"", metadata !2, i32 0, i64 0, i64 0, i64 0, i32 0, null, metadata !278, i32 0, null} ; [ DW_TAG_subroutine_type ]
!278 = metadata !{null, metadata !248, metadata !79}
!279 = metadata !{i32 458798, i32 0, metadata !15, metadata !"ap_uint", metadata !"ap_uint", metadata !"", metadata !16, i32 209, metadata !280, i1 false, i1 false, i32 0, i32 0, null, i1 false} ; [ DW_TAG_subprogram ]
!280 = metadata !{i32 458773, metadata !2, metadata !"", metadata !2, i32 0, i64 0, i64 0, i64 0, i32 0, null, metadata !281, i32 0, null} ; [ DW_TAG_subroutine_type ]
!281 = metadata !{null, metadata !248, metadata !75}
!282 = metadata !{i32 458798, i32 0, metadata !15, metadata !"ap_uint", metadata !"ap_uint", metadata !"", metadata !16, i32 210, metadata !283, i1 false, i1 false, i32 0, i32 0, null, i1 false} ; [ DW_TAG_subprogram ]
!283 = metadata !{i32 458773, metadata !2, metadata !"", metadata !2, i32 0, i64 0, i64 0, i64 0, i32 0, null, metadata !284, i32 0, null} ; [ DW_TAG_subroutine_type ]
!284 = metadata !{null, metadata !248, metadata !83}
!285 = metadata !{i32 458798, i32 0, metadata !15, metadata !"ap_uint", metadata !"ap_uint", metadata !"", metadata !16, i32 211, metadata !286, i1 false, i1 false, i32 0, i32 0, null, i1 false} ; [ DW_TAG_subprogram ]
!286 = metadata !{i32 458773, metadata !2, metadata !"", metadata !2, i32 0, i64 0, i64 0, i64 0, i32 0, null, metadata !287, i32 0, null} ; [ DW_TAG_subroutine_type ]
!287 = metadata !{null, metadata !248, metadata !87}
!288 = metadata !{i32 458798, i32 0, metadata !15, metadata !"ap_uint", metadata !"ap_uint", metadata !"", metadata !16, i32 213, metadata !289, i1 false, i1 false, i32 0, i32 0, null, i1 false} ; [ DW_TAG_subprogram ]
!289 = metadata !{i32 458773, metadata !2, metadata !"", metadata !2, i32 0, i64 0, i64 0, i64 0, i32 0, null, metadata !290, i32 0, null} ; [ DW_TAG_subroutine_type ]
!290 = metadata !{null, metadata !248, metadata !91}
!291 = metadata !{i32 458798, i32 0, metadata !15, metadata !"ap_uint", metadata !"ap_uint", metadata !"", metadata !16, i32 214, metadata !292, i1 false, i1 false, i32 0, i32 0, null, i1 false} ; [ DW_TAG_subprogram ]
!292 = metadata !{i32 458773, metadata !2, metadata !"", metadata !2, i32 0, i64 0, i64 0, i64 0, i32 0, null, metadata !293, i32 0, null} ; [ DW_TAG_subroutine_type ]
!293 = metadata !{null, metadata !248, metadata !91, metadata !43}
!294 = metadata !{i32 458798, i32 0, metadata !15, metadata !"operator=", metadata !"operator=", metadata !"_ZNV7ap_uintILi12EEaSERKS0_", metadata !16, i32 217, metadata !295, i1 false, i1 false, i32 0, i32 0, null, i1 false} ; [ DW_TAG_subprogram ]
!295 = metadata !{i32 458773, metadata !2, metadata !"", metadata !2, i32 0, i64 0, i64 0, i64 0, i32 0, null, metadata !296, i32 0, null} ; [ DW_TAG_subroutine_type ]
!296 = metadata !{null, metadata !297, metadata !299}
!297 = metadata !{i32 458767, metadata !2, metadata !"", metadata !2, i32 0, i64 64, i64 64, i64 0, i32 64, metadata !298} ; [ DW_TAG_pointer_type ]
!298 = metadata !{i32 458805, metadata !2, metadata !"", metadata !2, i32 0, i64 16, i64 16, i64 0, i32 0, metadata !15} ; [ DW_TAG_volatile_type ]
!299 = metadata !{i32 458768, metadata !2, metadata !"", metadata !2, i32 0, i64 64, i64 64, i64 0, i32 0, metadata !300} ; [ DW_TAG_reference_type ]
!300 = metadata !{i32 458790, metadata !2, metadata !"", metadata !2, i32 0, i64 16, i64 16, i64 0, i32 0, metadata !15} ; [ DW_TAG_const_type ]
!301 = metadata !{i32 458798, i32 0, metadata !15, metadata !"operator=", metadata !"operator=", metadata !"_ZNV7ap_uintILi12EEaSERVKS0_", metadata !16, i32 221, metadata !302, i1 false, i1 false, i32 0, i32 0, null, i1 false} ; [ DW_TAG_subprogram ]
!302 = metadata !{i32 458773, metadata !2, metadata !"", metadata !2, i32 0, i64 0, i64 0, i64 0, i32 0, null, metadata !303, i32 0, null} ; [ DW_TAG_subroutine_type ]
!303 = metadata !{null, metadata !297, metadata !304}
!304 = metadata !{i32 458768, metadata !2, metadata !"", metadata !2, i32 0, i64 64, i64 64, i64 0, i32 0, metadata !305} ; [ DW_TAG_reference_type ]
!305 = metadata !{i32 458790, metadata !2, metadata !"", metadata !2, i32 0, i64 16, i64 16, i64 0, i32 0, metadata !298} ; [ DW_TAG_const_type ]
!306 = metadata !{i32 458798, i32 0, metadata !15, metadata !"operator=", metadata !"operator=", metadata !"_ZN7ap_uintILi12EEaSERVKS0_", metadata !16, i32 225, metadata !307, i1 false, i1 false, i32 0, i32 0, null, i1 false} ; [ DW_TAG_subprogram ]
!307 = metadata !{i32 458773, metadata !2, metadata !"", metadata !2, i32 0, i64 0, i64 0, i64 0, i32 0, null, metadata !308, i32 0, null} ; [ DW_TAG_subroutine_type ]
!308 = metadata !{metadata !309, metadata !248, metadata !304}
!309 = metadata !{i32 458768, metadata !2, metadata !"ap_uint<12>", metadata !2, i32 0, i64 64, i64 64, i64 0, i32 0, metadata !15} ; [ DW_TAG_reference_type ]
!310 = metadata !{i32 458798, i32 0, metadata !15, metadata !"operator=", metadata !"operator=", metadata !"_ZN7ap_uintILi12EEaSERKS0_", metadata !16, i32 230, metadata !311, i1 false, i1 true, i32 0, i32 0, null, i1 false} ; [ DW_TAG_subprogram ]
!311 = metadata !{i32 458773, metadata !2, metadata !"", metadata !2, i32 0, i64 0, i64 0, i64 0, i32 0, null, metadata !312, i32 0, null} ; [ DW_TAG_subroutine_type ]
!312 = metadata !{metadata !309, metadata !248, metadata !299}
!313 = metadata !{i32 458765, metadata !9, metadata !"cols", metadata !12, i32 465, i64 16, i64 16, i64 16, i32 0, metadata !15} ; [ DW_TAG_member ]
!314 = metadata !{i32 458765, metadata !9, metadata !"data_stream", metadata !12, i32 467, i64 24, i64 8, i64 32, i32 0, metadata !315} ; [ DW_TAG_member ]
!315 = metadata !{i32 458753, metadata !2, metadata !"", metadata !2, i32 0, i64 24, i64 8, i64 0, i32 0, metadata !316, metadata !360, i32 0, null} ; [ DW_TAG_array_type ]
!316 = metadata !{i32 458771, metadata !10, metadata !"stream<unsigned char>", metadata !11, i32 34, i64 8, i64 8, i64 0, i32 0, null, metadata !317, i32 0, null} ; [ DW_TAG_structure_type ]
!317 = metadata !{metadata !318, metadata !319, metadata !323, metadata !326, metadata !331, metadata !335, metadata !339, metadata !344, metadata !348, metadata !349, metadata !350, metadata !353, metadata !356, metadata !357}
!318 = metadata !{i32 458765, metadata !316, metadata !"V", metadata !11, i32 111, i64 8, i64 8, i64 0, i32 1, metadata !47} ; [ DW_TAG_member ]
!319 = metadata !{i32 458798, i32 0, metadata !316, metadata !"stream", metadata !"stream", metadata !"", metadata !11, i32 37, metadata !320, i1 false, i1 false, i32 0, i32 0, null, i1 false} ; [ DW_TAG_subprogram ]
!320 = metadata !{i32 458773, metadata !2, metadata !"", metadata !2, i32 0, i64 0, i64 0, i64 0, i32 0, null, metadata !321, i32 0, null} ; [ DW_TAG_subroutine_type ]
!321 = metadata !{null, metadata !322}
!322 = metadata !{i32 458767, metadata !2, metadata !"", metadata !2, i32 0, i64 64, i64 64, i64 0, i32 64, metadata !316} ; [ DW_TAG_pointer_type ]
!323 = metadata !{i32 458798, i32 0, metadata !316, metadata !"stream", metadata !"stream", metadata !"", metadata !11, i32 40, metadata !324, i1 false, i1 false, i32 0, i32 0, null, i1 false} ; [ DW_TAG_subprogram ]
!324 = metadata !{i32 458773, metadata !2, metadata !"", metadata !2, i32 0, i64 0, i64 0, i64 0, i32 0, null, metadata !325, i32 0, null} ; [ DW_TAG_subroutine_type ]
!325 = metadata !{null, metadata !322, metadata !91}
!326 = metadata !{i32 458798, i32 0, metadata !316, metadata !"stream", metadata !"stream", metadata !"", metadata !11, i32 45, metadata !327, i1 false, i1 false, i32 0, i32 0, null, i1 false} ; [ DW_TAG_subprogram ]
!327 = metadata !{i32 458773, metadata !2, metadata !"", metadata !2, i32 0, i64 0, i64 0, i64 0, i32 0, null, metadata !328, i32 0, null} ; [ DW_TAG_subroutine_type ]
!328 = metadata !{null, metadata !322, metadata !329}
!329 = metadata !{i32 458768, metadata !2, metadata !"", metadata !2, i32 0, i64 64, i64 64, i64 0, i32 0, metadata !330} ; [ DW_TAG_reference_type ]
!330 = metadata !{i32 458790, metadata !10, metadata !"", metadata !2, i32 0, i64 8, i64 8, i64 0, i32 0, metadata !316} ; [ DW_TAG_const_type ]
!331 = metadata !{i32 458798, i32 0, metadata !316, metadata !"operator=", metadata !"operator=", metadata !"_ZN3hls6streamIhEaSERKS1_", metadata !11, i32 48, metadata !332, i1 false, i1 false, i32 0, i32 0, null, i1 false} ; [ DW_TAG_subprogram ]
!332 = metadata !{i32 458773, metadata !2, metadata !"", metadata !2, i32 0, i64 0, i64 0, i64 0, i32 0, null, metadata !333, i32 0, null} ; [ DW_TAG_subroutine_type ]
!333 = metadata !{metadata !334, metadata !322, metadata !329}
!334 = metadata !{i32 458768, metadata !2, metadata !"hlsstream<unsigned char>", metadata !2, i32 0, i64 64, i64 64, i64 0, i32 0, metadata !316} ; [ DW_TAG_reference_type ]
!335 = metadata !{i32 458798, i32 0, metadata !316, metadata !"operator>>", metadata !"operator>>", metadata !"_ZN3hls6streamIhErsERh", metadata !11, i32 55, metadata !336, i1 false, i1 true, i32 0, i32 0, null, i1 false} ; [ DW_TAG_subprogram ]
!336 = metadata !{i32 458773, metadata !2, metadata !"", metadata !2, i32 0, i64 0, i64 0, i64 0, i32 0, null, metadata !337, i32 0, null} ; [ DW_TAG_subroutine_type ]
!337 = metadata !{null, metadata !322, metadata !338}
!338 = metadata !{i32 458768, metadata !2, metadata !"unsigned char", metadata !2, i32 0, i64 64, i64 64, i64 0, i32 0, metadata !47} ; [ DW_TAG_reference_type ]
!339 = metadata !{i32 458798, i32 0, metadata !316, metadata !"operator<<", metadata !"operator<<", metadata !"_ZN3hls6streamIhElsERKh", metadata !11, i32 59, metadata !340, i1 false, i1 true, i32 0, i32 0, null, i1 false} ; [ DW_TAG_subprogram ]
!340 = metadata !{i32 458773, metadata !2, metadata !"", metadata !2, i32 0, i64 0, i64 0, i64 0, i32 0, null, metadata !341, i32 0, null} ; [ DW_TAG_subroutine_type ]
!341 = metadata !{null, metadata !322, metadata !342}
!342 = metadata !{i32 458768, metadata !2, metadata !"", metadata !2, i32 0, i64 64, i64 64, i64 0, i32 0, metadata !343} ; [ DW_TAG_reference_type ]
!343 = metadata !{i32 458790, metadata !2, metadata !"", metadata !2, i32 0, i64 8, i64 8, i64 0, i32 0, metadata !47} ; [ DW_TAG_const_type ]
!344 = metadata !{i32 458798, i32 0, metadata !316, metadata !"empty", metadata !"empty", metadata !"_ZNK3hls6streamIhE5emptyEv", metadata !11, i32 66, metadata !345, i1 false, i1 false, i32 0, i32 0, null, i1 false} ; [ DW_TAG_subprogram ]
!345 = metadata !{i32 458773, metadata !2, metadata !"", metadata !2, i32 0, i64 0, i64 0, i64 0, i32 0, null, metadata !346, i32 0, null} ; [ DW_TAG_subroutine_type ]
!346 = metadata !{metadata !39, metadata !347}
!347 = metadata !{i32 458767, metadata !2, metadata !"", metadata !2, i32 0, i64 64, i64 64, i64 0, i32 64, metadata !330} ; [ DW_TAG_pointer_type ]
!348 = metadata !{i32 458798, i32 0, metadata !316, metadata !"full", metadata !"full", metadata !"_ZNK3hls6streamIhE4fullEv", metadata !11, i32 71, metadata !345, i1 false, i1 false, i32 0, i32 0, null, i1 false} ; [ DW_TAG_subprogram ]
!349 = metadata !{i32 458798, i32 0, metadata !316, metadata !"read", metadata !"read", metadata !"_ZN3hls6streamIhE4readERh", metadata !11, i32 77, metadata !336, i1 false, i1 true, i32 0, i32 0, null, i1 false} ; [ DW_TAG_subprogram ]
!350 = metadata !{i32 458798, i32 0, metadata !316, metadata !"read", metadata !"read", metadata !"_ZN3hls6streamIhE4readEv", metadata !11, i32 83, metadata !351, i1 false, i1 false, i32 0, i32 0, null, i1 false} ; [ DW_TAG_subprogram ]
!351 = metadata !{i32 458773, metadata !2, metadata !"", metadata !2, i32 0, i64 0, i64 0, i64 0, i32 0, null, metadata !352, i32 0, null} ; [ DW_TAG_subroutine_type ]
!352 = metadata !{metadata !47, metadata !322}
!353 = metadata !{i32 458798, i32 0, metadata !316, metadata !"read_nb", metadata !"read_nb", metadata !"_ZN3hls6streamIhE7read_nbERh", metadata !11, i32 90, metadata !354, i1 false, i1 false, i32 0, i32 0, null, i1 false} ; [ DW_TAG_subprogram ]
!354 = metadata !{i32 458773, metadata !2, metadata !"", metadata !2, i32 0, i64 0, i64 0, i64 0, i32 0, null, metadata !355, i32 0, null} ; [ DW_TAG_subroutine_type ]
!355 = metadata !{metadata !39, metadata !322, metadata !338}
!356 = metadata !{i32 458798, i32 0, metadata !316, metadata !"write", metadata !"write", metadata !"_ZN3hls6streamIhE5writeERKh", metadata !11, i32 98, metadata !340, i1 false, i1 true, i32 0, i32 0, null, i1 false} ; [ DW_TAG_subprogram ]
!357 = metadata !{i32 458798, i32 0, metadata !316, metadata !"write_nb", metadata !"write_nb", metadata !"_ZN3hls6streamIhE8write_nbERKh", metadata !11, i32 104, metadata !358, i1 false, i1 false, i32 0, i32 0, null, i1 false} ; [ DW_TAG_subprogram ]
!358 = metadata !{i32 458773, metadata !2, metadata !"", metadata !2, i32 0, i64 0, i64 0, i64 0, i32 0, null, metadata !359, i32 0, null} ; [ DW_TAG_subroutine_type ]
!359 = metadata !{metadata !39, metadata !322, metadata !342}
!360 = metadata !{metadata !361}
!361 = metadata !{i32 458785, i64 0, i64 2}       ; [ DW_TAG_subrange_type ]
!362 = metadata !{i32 458798, i32 0, metadata !9, metadata !"Mat", metadata !"Mat", metadata !"", metadata !12, i32 472, metadata !363, i1 false, i1 false, i32 0, i32 0, null, i1 false} ; [ DW_TAG_subprogram ]
!363 = metadata !{i32 458773, metadata !2, metadata !"", metadata !2, i32 0, i64 0, i64 0, i64 0, i32 0, null, metadata !364, i32 0, null} ; [ DW_TAG_subroutine_type ]
!364 = metadata !{null, metadata !365}
!365 = metadata !{i32 458767, metadata !2, metadata !"", metadata !2, i32 0, i64 64, i64 64, i64 0, i32 64, metadata !9} ; [ DW_TAG_pointer_type ]
!366 = metadata !{i32 458798, i32 0, metadata !9, metadata !"Mat", metadata !"Mat", metadata !"", metadata !12, i32 477, metadata !367, i1 false, i1 false, i32 0, i32 0, null, i1 false} ; [ DW_TAG_subprogram ]
!367 = metadata !{i32 458773, metadata !2, metadata !"", metadata !2, i32 0, i64 0, i64 0, i64 0, i32 0, null, metadata !368, i32 0, null} ; [ DW_TAG_subroutine_type ]
!368 = metadata !{null, metadata !365, metadata !59, metadata !59}
!369 = metadata !{i32 458798, i32 0, metadata !9, metadata !"Mat", metadata !"Mat", metadata !"", metadata !12, i32 482, metadata !370, i1 false, i1 false, i32 0, i32 0, null, i1 false} ; [ DW_TAG_subprogram ]
!370 = metadata !{i32 458773, metadata !2, metadata !"", metadata !2, i32 0, i64 0, i64 0, i64 0, i32 0, null, metadata !371, i32 0, null} ; [ DW_TAG_subroutine_type ]
!371 = metadata !{null, metadata !365, metadata !372}
!372 = metadata !{i32 458771, metadata !10, metadata !"Size_<int>", metadata !12, i32 113, i64 64, i64 32, i64 0, i32 0, null, metadata !373, i32 0, null} ; [ DW_TAG_structure_type ]
!373 = metadata !{metadata !374, metadata !375, metadata !376, metadata !380, metadata !383, metadata !388, metadata !410, metadata !413}
!374 = metadata !{i32 458765, metadata !372, metadata !"width", metadata !12, i32 122, i64 32, i64 32, i64 0, i32 0, metadata !59} ; [ DW_TAG_member ]
!375 = metadata !{i32 458765, metadata !372, metadata !"height", metadata !12, i32 122, i64 32, i64 32, i64 32, i32 0, metadata !59} ; [ DW_TAG_member ]
!376 = metadata !{i32 458798, i32 0, metadata !372, metadata !"Size_", metadata !"Size_", metadata !"", metadata !12, i32 126, metadata !377, i1 false, i1 false, i32 0, i32 0, null, i1 false} ; [ DW_TAG_subprogram ]
!377 = metadata !{i32 458773, metadata !2, metadata !"", metadata !2, i32 0, i64 0, i64 0, i64 0, i32 0, null, metadata !378, i32 0, null} ; [ DW_TAG_subroutine_type ]
!378 = metadata !{null, metadata !379}
!379 = metadata !{i32 458767, metadata !2, metadata !"", metadata !2, i32 0, i64 64, i64 64, i64 0, i32 64, metadata !372} ; [ DW_TAG_pointer_type ]
!380 = metadata !{i32 458798, i32 0, metadata !372, metadata !"Size_", metadata !"Size_", metadata !"", metadata !12, i32 127, metadata !381, i1 false, i1 false, i32 0, i32 0, null, i1 false} ; [ DW_TAG_subprogram ]
!381 = metadata !{i32 458773, metadata !2, metadata !"", metadata !2, i32 0, i64 0, i64 0, i64 0, i32 0, null, metadata !382, i32 0, null} ; [ DW_TAG_subroutine_type ]
!382 = metadata !{null, metadata !379, metadata !59, metadata !59}
!383 = metadata !{i32 458798, i32 0, metadata !372, metadata !"Size_", metadata !"Size_", metadata !"", metadata !12, i32 128, metadata !384, i1 false, i1 false, i32 0, i32 0, null, i1 false} ; [ DW_TAG_subprogram ]
!384 = metadata !{i32 458773, metadata !2, metadata !"", metadata !2, i32 0, i64 0, i64 0, i64 0, i32 0, null, metadata !385, i32 0, null} ; [ DW_TAG_subroutine_type ]
!385 = metadata !{null, metadata !379, metadata !386}
!386 = metadata !{i32 458768, metadata !2, metadata !"", metadata !2, i32 0, i64 64, i64 64, i64 0, i32 0, metadata !387} ; [ DW_TAG_reference_type ]
!387 = metadata !{i32 458790, metadata !10, metadata !"", metadata !2, i32 0, i64 64, i64 32, i64 0, i32 0, metadata !372} ; [ DW_TAG_const_type ]
!388 = metadata !{i32 458798, i32 0, metadata !372, metadata !"Size_", metadata !"Size_", metadata !"", metadata !12, i32 129, metadata !389, i1 false, i1 false, i32 0, i32 0, null, i1 false} ; [ DW_TAG_subprogram ]
!389 = metadata !{i32 458773, metadata !2, metadata !"", metadata !2, i32 0, i64 0, i64 0, i64 0, i32 0, null, metadata !390, i32 0, null} ; [ DW_TAG_subroutine_type ]
!390 = metadata !{null, metadata !379, metadata !391}
!391 = metadata !{i32 458768, metadata !2, metadata !"", metadata !2, i32 0, i64 64, i64 64, i64 0, i32 0, metadata !392} ; [ DW_TAG_reference_type ]
!392 = metadata !{i32 458790, metadata !10, metadata !"", metadata !2, i32 0, i64 64, i64 32, i64 0, i32 0, metadata !393} ; [ DW_TAG_const_type ]
!393 = metadata !{i32 458771, metadata !10, metadata !"Point_<int>", metadata !12, i32 92, i64 64, i64 32, i64 0, i32 0, null, metadata !394, i32 0, null} ; [ DW_TAG_structure_type ]
!394 = metadata !{metadata !395, metadata !396, metadata !397, metadata !401, metadata !404, metadata !407}
!395 = metadata !{i32 458765, metadata !393, metadata !"x", metadata !12, i32 99, i64 32, i64 32, i64 0, i32 0, metadata !59} ; [ DW_TAG_member ]
!396 = metadata !{i32 458765, metadata !393, metadata !"y", metadata !12, i32 99, i64 32, i64 32, i64 32, i32 0, metadata !59} ; [ DW_TAG_member ]
!397 = metadata !{i32 458798, i32 0, metadata !393, metadata !"Point_", metadata !"Point_", metadata !"", metadata !12, i32 103, metadata !398, i1 false, i1 false, i32 0, i32 0, null, i1 false} ; [ DW_TAG_subprogram ]
!398 = metadata !{i32 458773, metadata !2, metadata !"", metadata !2, i32 0, i64 0, i64 0, i64 0, i32 0, null, metadata !399, i32 0, null} ; [ DW_TAG_subroutine_type ]
!399 = metadata !{null, metadata !400}
!400 = metadata !{i32 458767, metadata !2, metadata !"", metadata !2, i32 0, i64 64, i64 64, i64 0, i32 64, metadata !393} ; [ DW_TAG_pointer_type ]
!401 = metadata !{i32 458798, i32 0, metadata !393, metadata !"Point_", metadata !"Point_", metadata !"", metadata !12, i32 104, metadata !402, i1 false, i1 false, i32 0, i32 0, null, i1 false} ; [ DW_TAG_subprogram ]
!402 = metadata !{i32 458773, metadata !2, metadata !"", metadata !2, i32 0, i64 0, i64 0, i64 0, i32 0, null, metadata !403, i32 0, null} ; [ DW_TAG_subroutine_type ]
!403 = metadata !{null, metadata !400, metadata !59, metadata !59}
!404 = metadata !{i32 458798, i32 0, metadata !393, metadata !"Point_", metadata !"Point_", metadata !"", metadata !12, i32 105, metadata !405, i1 false, i1 false, i32 0, i32 0, null, i1 false} ; [ DW_TAG_subprogram ]
!405 = metadata !{i32 458773, metadata !2, metadata !"", metadata !2, i32 0, i64 0, i64 0, i64 0, i32 0, null, metadata !406, i32 0, null} ; [ DW_TAG_subroutine_type ]
!406 = metadata !{null, metadata !400, metadata !391}
!407 = metadata !{i32 458798, i32 0, metadata !393, metadata !"~Point_", metadata !"~Point_", metadata !"", metadata !12, i32 106, metadata !408, i1 false, i1 false, i32 0, i32 0, null, i1 false} ; [ DW_TAG_subprogram ]
!408 = metadata !{i32 458773, metadata !2, metadata !"", metadata !2, i32 0, i64 0, i64 0, i64 0, i32 0, null, metadata !409, i32 0, null} ; [ DW_TAG_subroutine_type ]
!409 = metadata !{null, metadata !400, metadata !59}
!410 = metadata !{i32 458798, i32 0, metadata !372, metadata !"area", metadata !"area", metadata !"_ZN3hls5Size_IiE4areaEv", metadata !12, i32 130, metadata !411, i1 false, i1 false, i32 0, i32 0, null, i1 false} ; [ DW_TAG_subprogram ]
!411 = metadata !{i32 458773, metadata !2, metadata !"", metadata !2, i32 0, i64 0, i64 0, i64 0, i32 0, null, metadata !412, i32 0, null} ; [ DW_TAG_subroutine_type ]
!412 = metadata !{metadata !59, metadata !379}
!413 = metadata !{i32 458798, i32 0, metadata !372, metadata !"~Size_", metadata !"~Size_", metadata !"", metadata !12, i32 131, metadata !414, i1 false, i1 false, i32 0, i32 0, null, i1 false} ; [ DW_TAG_subprogram ]
!414 = metadata !{i32 458773, metadata !2, metadata !"", metadata !2, i32 0, i64 0, i64 0, i64 0, i32 0, null, metadata !415, i32 0, null} ; [ DW_TAG_subroutine_type ]
!415 = metadata !{null, metadata !379, metadata !59}
!416 = metadata !{i32 458798, i32 0, metadata !9, metadata !"init", metadata !"init", metadata !"_ZN3hls3MatILi1080ELi1920ELi16EE4initEii", metadata !12, i32 487, metadata !367, i1 false, i1 true, i32 0, i32 0, null, i1 false} ; [ DW_TAG_subprogram ]
!417 = metadata !{i32 458798, i32 0, metadata !9, metadata !"assignto", metadata !"assignto", metadata !"_ZN3hls3MatILi1080ELi1920ELi16EE8assigntoERS1_", metadata !12, i32 494, metadata !418, i1 false, i1 false, i32 0, i32 0, null, i1 false} ; [ DW_TAG_subprogram ]
!418 = metadata !{i32 458773, metadata !2, metadata !"", metadata !2, i32 0, i64 0, i64 0, i64 0, i32 0, null, metadata !419, i32 0, null} ; [ DW_TAG_subroutine_type ]
!419 = metadata !{null, metadata !365, metadata !420}
!420 = metadata !{i32 458768, metadata !2, metadata !"hlsMat<1080,1920,16>", metadata !2, i32 0, i64 64, i64 64, i64 0, i32 0, metadata !9} ; [ DW_TAG_reference_type ]
!421 = metadata !{i32 458798, i32 0, metadata !9, metadata !"read", metadata !"read", metadata !"_ZN3hls3MatILi1080ELi1920ELi16EE4readEv", metadata !12, i32 501, metadata !422, i1 false, i1 true, i32 0, i32 0, null, i1 false} ; [ DW_TAG_subprogram ]
!422 = metadata !{i32 458773, metadata !2, metadata !"", metadata !2, i32 0, i64 0, i64 0, i64 0, i32 0, null, metadata !423, i32 0, null} ; [ DW_TAG_subroutine_type ]
!423 = metadata !{metadata !424, metadata !365}
!424 = metadata !{i32 458771, metadata !10, metadata !"Scalar<3,unsigned char>", metadata !12, i32 175, i64 24, i64 8, i64 0, i32 0, null, metadata !425, i32 0, null} ; [ DW_TAG_structure_type ]
!425 = metadata !{metadata !426, metadata !428, metadata !432, metadata !435, metadata !438, metadata !441}
!426 = metadata !{i32 458765, metadata !424, metadata !"val", metadata !12, i32 201, i64 24, i64 8, i64 0, i32 0, metadata !427} ; [ DW_TAG_member ]
!427 = metadata !{i32 458753, metadata !2, metadata !"", metadata !2, i32 0, i64 24, i64 8, i64 0, i32 0, metadata !47, metadata !360, i32 0, null} ; [ DW_TAG_array_type ]
!428 = metadata !{i32 458798, i32 0, metadata !424, metadata !"Scalar", metadata !"Scalar", metadata !"", metadata !12, i32 177, metadata !429, i1 false, i1 false, i32 0, i32 0, null, i1 false} ; [ DW_TAG_subprogram ]
!429 = metadata !{i32 458773, metadata !2, metadata !"", metadata !2, i32 0, i64 0, i64 0, i64 0, i32 0, null, metadata !430, i32 0, null} ; [ DW_TAG_subroutine_type ]
!430 = metadata !{null, metadata !431}
!431 = metadata !{i32 458767, metadata !2, metadata !"", metadata !2, i32 0, i64 64, i64 64, i64 0, i32 64, metadata !424} ; [ DW_TAG_pointer_type ]
!432 = metadata !{i32 458798, i32 0, metadata !424, metadata !"Scalar", metadata !"Scalar", metadata !"", metadata !12, i32 181, metadata !433, i1 false, i1 false, i32 0, i32 0, null, i1 false} ; [ DW_TAG_subprogram ]
!433 = metadata !{i32 458773, metadata !2, metadata !"", metadata !2, i32 0, i64 0, i64 0, i64 0, i32 0, null, metadata !434, i32 0, null} ; [ DW_TAG_subroutine_type ]
!434 = metadata !{null, metadata !431, metadata !47}
!435 = metadata !{i32 458798, i32 0, metadata !424, metadata !"Scalar", metadata !"Scalar", metadata !"", metadata !12, i32 186, metadata !436, i1 false, i1 false, i32 0, i32 0, null, i1 false} ; [ DW_TAG_subprogram ]
!436 = metadata !{i32 458773, metadata !2, metadata !"", metadata !2, i32 0, i64 0, i64 0, i64 0, i32 0, null, metadata !437, i32 0, null} ; [ DW_TAG_subroutine_type ]
!437 = metadata !{null, metadata !431, metadata !47, metadata !47}
!438 = metadata !{i32 458798, i32 0, metadata !424, metadata !"Scalar", metadata !"Scalar", metadata !"", metadata !12, i32 191, metadata !439, i1 false, i1 false, i32 0, i32 0, null, i1 false} ; [ DW_TAG_subprogram ]
!439 = metadata !{i32 458773, metadata !2, metadata !"", metadata !2, i32 0, i64 0, i64 0, i64 0, i32 0, null, metadata !440, i32 0, null} ; [ DW_TAG_subroutine_type ]
!440 = metadata !{null, metadata !431, metadata !47, metadata !47, metadata !47}
!441 = metadata !{i32 458798, i32 0, metadata !424, metadata !"Scalar", metadata !"Scalar", metadata !"", metadata !12, i32 196, metadata !442, i1 false, i1 false, i32 0, i32 0, null, i1 false} ; [ DW_TAG_subprogram ]
!442 = metadata !{i32 458773, metadata !2, metadata !"", metadata !2, i32 0, i64 0, i64 0, i64 0, i32 0, null, metadata !443, i32 0, null} ; [ DW_TAG_subroutine_type ]
!443 = metadata !{null, metadata !431, metadata !47, metadata !47, metadata !47, metadata !47}
!444 = metadata !{i32 458798, i32 0, metadata !9, metadata !"read", metadata !"read", metadata !"_ZN3hls3MatILi1080ELi1920ELi16EE4readERNS_6ScalarILi3EhEE", metadata !12, i32 513, metadata !445, i1 false, i1 false, i32 0, i32 0, null, i1 false} ; [ DW_TAG_subprogram ]
!445 = metadata !{i32 458773, metadata !2, metadata !"", metadata !2, i32 0, i64 0, i64 0, i64 0, i32 0, null, metadata !446, i32 0, null} ; [ DW_TAG_subroutine_type ]
!446 = metadata !{null, metadata !365, metadata !447}
!447 = metadata !{i32 458768, metadata !2, metadata !"Scalar<3,unsigned char>", metadata !2, i32 0, i64 64, i64 64, i64 0, i32 0, metadata !424} ; [ DW_TAG_reference_type ]
!448 = metadata !{i32 458798, i32 0, metadata !9, metadata !"write", metadata !"write", metadata !"_ZN3hls3MatILi1080ELi1920ELi16EE5writeENS_6ScalarILi3EhEE", metadata !12, i32 519, metadata !449, i1 false, i1 true, i32 0, i32 0, null, i1 false} ; [ DW_TAG_subprogram ]
!449 = metadata !{i32 458773, metadata !2, metadata !"", metadata !2, i32 0, i64 0, i64 0, i64 0, i32 0, null, metadata !450, i32 0, null} ; [ DW_TAG_subroutine_type ]
!450 = metadata !{null, metadata !365, metadata !424}
!451 = metadata !{i32 458798, i32 0, metadata !9, metadata !"operator>>", metadata !"operator>>", metadata !"_ZN3hls3MatILi1080ELi1920ELi16EErsERNS_6ScalarILi3EhEE", metadata !12, i32 529, metadata !445, i1 false, i1 true, i32 0, i32 0, null, i1 false} ; [ DW_TAG_subprogram ]
!452 = metadata !{i32 458798, i32 0, metadata !9, metadata !"operator<<", metadata !"operator<<", metadata !"_ZN3hls3MatILi1080ELi1920ELi16EElsENS_6ScalarILi3EhEE", metadata !12, i32 535, metadata !449, i1 false, i1 true, i32 0, i32 0, null, i1 false} ; [ DW_TAG_subprogram ]
!453 = metadata !{i32 458798, i32 0, metadata !9, metadata !"empty", metadata !"empty", metadata !"_ZN3hls3MatILi1080ELi1920ELi16EE5emptyEv", metadata !12, i32 541, metadata !454, i1 false, i1 false, i32 0, i32 0, null, i1 false} ; [ DW_TAG_subprogram ]
!454 = metadata !{i32 458773, metadata !2, metadata !"", metadata !2, i32 0, i64 0, i64 0, i64 0, i32 0, null, metadata !455, i32 0, null} ; [ DW_TAG_subroutine_type ]
!455 = metadata !{metadata !39, metadata !365}
!456 = metadata !{i32 458798, i32 0, metadata !9, metadata !"type", metadata !"type", metadata !"_ZNK3hls3MatILi1080ELi1920ELi16EE4typeEv", metadata !12, i32 553, metadata !457, i1 false, i1 false, i32 0, i32 0, null, i1 false} ; [ DW_TAG_subprogram ]
!457 = metadata !{i32 458773, metadata !2, metadata !"", metadata !2, i32 0, i64 0, i64 0, i64 0, i32 0, null, metadata !458, i32 0, null} ; [ DW_TAG_subroutine_type ]
!458 = metadata !{metadata !459, metadata !460}
!459 = metadata !{i32 458790, metadata !2, metadata !"", metadata !2, i32 0, i64 32, i64 32, i64 0, i32 0, metadata !59} ; [ DW_TAG_const_type ]
!460 = metadata !{i32 458767, metadata !2, metadata !"", metadata !2, i32 0, i64 64, i64 64, i64 0, i32 64, metadata !461} ; [ DW_TAG_pointer_type ]
!461 = metadata !{i32 458790, metadata !10, metadata !"", metadata !2, i32 0, i64 64, i64 16, i64 0, i32 0, metadata !9} ; [ DW_TAG_const_type ]
!462 = metadata !{i32 458798, i32 0, metadata !9, metadata !"depth", metadata !"depth", metadata !"_ZNK3hls3MatILi1080ELi1920ELi16EE5depthEv", metadata !12, i32 559, metadata !457, i1 false, i1 true, i32 0, i32 0, null, i1 false} ; [ DW_TAG_subprogram ]
!463 = metadata !{i32 458798, i32 0, metadata !9, metadata !"channels", metadata !"channels", metadata !"_ZNK3hls3MatILi1080ELi1920ELi16EE8channelsEv", metadata !12, i32 564, metadata !457, i1 false, i1 false, i32 0, i32 0, null, i1 false} ; [ DW_TAG_subprogram ]
!464 = metadata !{i32 458753, metadata !2, metadata !"", metadata !2, i32 0, i64 288, i64 32, i64 0, i32 0, metadata !59, metadata !465, i32 0, null} ; [ DW_TAG_array_type ]
!465 = metadata !{metadata !361, metadata !361}
