; ModuleID = '/nfs/TUEIEDAprojects/SystemDesign/work/zynq/umair-razzaq/xapp1167/sw/erode/prj/solution1/.autopilot/db/a.o.2.bc'
target datalayout = "e-p:64:64:64-i1:8:8-i8:8:8-i16:16:16-i32:32:32-i64:64:64-f32:32:32-f64:64:64-v64:64:64-v128:128:128-a0:0:64-s0:64:64-f80:128:128-n8:16:32:64"
target triple = "x86_64-unknown-linux-gnu"

%"hls::Mat<1080, 1920, 16>::init.1_ret" = type { i12, i12 }
%"hls::Mat<1080, 1920, 16>::init_ret" = type { i12, i12, i12, i12 }
%"struct.ap_axiu<64,1,1,1>" = type { %"struct.ap_uint<64>", %"struct.ap_uint<8>", %"struct.ap_uint<8>", %"struct.ap_uint<1>", %"struct.ap_uint<1>", %"struct.ap_uint<1>", %"struct.ap_uint<1>" }
%"struct.ap_int_base<1,false,true>" = type { %"struct.ssdm_int<1,false>" }
%"struct.ap_int_base<12,false,true>" = type { %"struct.ssdm_int<12,false>" }
%"struct.ap_int_base<64,false,true>" = type { %"struct.ssdm_int<64,false>" }
%"struct.ap_int_base<8,false,true>" = type { %"struct.hls::stream<unsigned char>" }
%"struct.ap_uint<12>" = type { %"struct.ap_int_base<12,false,true>" }
%"struct.ap_uint<1>" = type { %"struct.ap_int_base<1,false,true>" }
%"struct.ap_uint<64>" = type { %"struct.ap_int_base<64,false,true>" }
%"struct.ap_uint<8>" = type { %"struct.ap_int_base<8,false,true>" }
%"struct.hls::Mat<1080,1920,16>" = type { %"struct.ap_uint<12>", %"struct.ap_uint<12>", [3 x %"struct.hls::stream<unsigned char>"] }
%"struct.hls::filter2d_kernel" = type <{ i8 }>
%"struct.hls::stream<ap_axiu<64, 1, 1, 1> >" = type { %"struct.ap_axiu<64,1,1,1>" }
%"struct.hls::stream<unsigned char>" = type { i8 }
%"struct.ssdm_int<1,false>" = type { i1 }
%"struct.ssdm_int<12,false>" = type { i12 }
%"struct.ssdm_int<64,false>" = type { i64 }

@.str15 = private constant [65 x i8] c"(_rows > 0) && (_rows <= ROWS) && (_cols > 0) && (_cols <= COLS)\00", align 8 ; <[65 x i8]*> [#uses=1]
@.str16 = private constant [90 x i8] c"/ise_local2/umair_temp/Vivado_HLS/2013.1/common/technology/autopilot/hls/hls_video_core.h\00", align 8 ; <[90 x i8]*> [#uses=1]
@"init(int,int)__PRETTY_FUNCTION__" = internal constant [97 x i8] c"void hls::Mat<ROWS, COLS, T>::init(int, int) [with int ROWS = 1080, int COLS = 1920, int T = 16]\00", align 32 ; <[97 x i8]*> [#uses=1]
@.str20 = private constant [1 x i8] zeroinitializer, align 1 ; <[1 x i8]*> [#uses=57]
@.str25 = private constant [13 x i8] c"hls_label_17\00", align 1 ; <[13 x i8]*> [#uses=2]
@.str26 = private constant [13 x i8] c"hls_label_18\00", align 1 ; <[13 x i8]*> [#uses=2]
@.str27 = private constant [13 x i8] c"hls_label_19\00", align 1 ; <[13 x i8]*> [#uses=2]
@.str28 = private constant [13 x i8] c"hls_label_20\00", align 1 ; <[13 x i8]*> [#uses=2]
@.str30 = private constant [13 x i8] c"hls_label_21\00", align 1 ; <[13 x i8]*> [#uses=2]
@.str31 = private constant [13 x i8] c"hls_label_22\00", align 1 ; <[13 x i8]*> [#uses=2]
@.str32 = private constant [5 x i8] c"AXIS\00", align 1 ; <[5 x i8]*> [#uses=4]
@.str33 = private constant [25 x i8] c"-bus_bundle INPUT_STREAM\00", align 1 ; <[25 x i8]*> [#uses=2]
@.str34 = private constant [26 x i8] c"-bus_bundle OUTPUT_STREAM\00", align 1 ; <[26 x i8]*> [#uses=2]
@.str35 = private constant [10 x i8] c"AXI_SLAVE\00", align 1 ; <[10 x i8]*> [#uses=7]
@.str36 = private constant [24 x i8] c"-bus_bundle CONTROL_BUS\00", align 1 ; <[24 x i8]*> [#uses=7]
@.str37 = private constant [10 x i8] c"ap_stable\00", align 1 ; <[10 x i8]*> [#uses=2]
@llvm.global_ctors.0 = appending global [1 x i32] [i32 65535] ; <[1 x i32]*> [#uses=0]
@llvm.global_ctors.1 = appending global [1 x void ()*] [void ()* @_GLOBAL__I__Z5SobelRN3hls3MatILi1080ELi1920ELi16EEES2_ii] ; <[1 x void ()*]*> [#uses=0]
@llvm.global_dtors.0 = appending global [1 x i32] [i32 65535] ; <[1 x i32]*> [#uses=0]
@llvm.global_dtors.1 = appending global [1 x void ()*] [void ()* @_GLOBAL__D__Z5SobelRN3hls3MatILi1080ELi1920ELi16EEES2_ii] ; <[1 x void ()*]*> [#uses=0]
@str = internal constant [8 x i8] c"ap_fifo\00"   ; <[8 x i8]*> [#uses=4]
@str30 = internal constant [8 x i8] c"ap_fifo\00" ; <[8 x i8]*> [#uses=4]
@str31 = internal constant [8 x i8] c"ap_fifo\00" ; <[8 x i8]*> [#uses=4]
@str32 = internal constant [8 x i8] c"ap_fifo\00" ; <[8 x i8]*> [#uses=4]
@str33 = internal constant [8 x i8] c"ap_fifo\00" ; <[8 x i8]*> [#uses=4]
@str34 = internal constant [8 x i8] c"ap_fifo\00" ; <[8 x i8]*> [#uses=4]
@str35 = internal constant [8 x i8] c"ap_fifo\00" ; <[8 x i8]*> [#uses=4]
@str36 = internal constant [8 x i8] c"ap_fifo\00" ; <[8 x i8]*> [#uses=4]
@str37 = internal constant [8 x i8] c"ap_fifo\00" ; <[8 x i8]*> [#uses=4]
@str38 = internal constant [8 x i8] c"ap_fifo\00" ; <[8 x i8]*> [#uses=4]
@str39 = internal constant [8 x i8] c"ap_fifo\00" ; <[8 x i8]*> [#uses=4]
@str40 = internal constant [8 x i8] c"ap_fifo\00" ; <[8 x i8]*> [#uses=4]
@str41 = internal constant [8 x i8] c"ap_fifo\00" ; <[8 x i8]*> [#uses=4]
@str42 = internal constant [8 x i8] c"ap_fifo\00" ; <[8 x i8]*> [#uses=4]
@str49 = internal constant [22 x i8] c"img_0.data_stream.V.0\00" ; <[22 x i8]*> [#uses=1]
@str50 = internal constant [1 x i8] zeroinitializer ; <[1 x i8]*> [#uses=2]
@str51 = internal constant [8 x i8] c"ap_fifo\00" ; <[8 x i8]*> [#uses=6]
@str52 = internal constant [22 x i8] c"img_0.data_stream.V.1\00" ; <[22 x i8]*> [#uses=1]
@str53 = internal constant [1 x i8] zeroinitializer ; <[1 x i8]*> [#uses=2]
@str54 = internal constant [8 x i8] c"ap_fifo\00" ; <[8 x i8]*> [#uses=6]
@str55 = internal constant [22 x i8] c"img_0.data_stream.V.2\00" ; <[22 x i8]*> [#uses=1]
@str56 = internal constant [1 x i8] zeroinitializer ; <[1 x i8]*> [#uses=2]
@str57 = internal constant [8 x i8] c"ap_fifo\00" ; <[8 x i8]*> [#uses=6]

declare void @llvm.dbg.declare(metadata, metadata) nounwind readnone

declare void @_ssdm_op_SpecPipeline(...) nounwind

declare void @_ssdm_op_SpecLoopTripCount(...) nounwind

declare void @_ssdm_SpecLoopFlatten(...) nounwind

define void @image_filter(i64* %input.V.data.V, i8* %input.V.keep.V, i8* %input.V.strb.V, i1* %input.V.user.V, i1* %input.V.last.V, i1* %input.V.id.V, i1* %input.V.dest.V, i64* %output.V.data.V, i8* %output.V.keep.V, i8* %output.V.strb.V, i1* %output.V.user.V, i1* %output.V.last.V, i1* %output.V.id.V, i1* %output.V.dest.V, i32 %rows, i32 %cols) {
entry:
  call void (...)* @_ssdm_op_SpecDataflowPipeline(i32 -1, [1 x i8]* @.str20) nounwind, !dbg !466
  %0 = call i32 (...)* @_ssdm_op_SpecFifo(i1* %output.V.dest.V, [8 x i8]* @str42, i32 0, i32 0, [8 x i8]* @str42) ; <i32> [#uses=0]
  %1 = call i32 (...)* @_ssdm_op_SpecFifo(i1* %output.V.id.V, [8 x i8]* @str41, i32 0, i32 0, [8 x i8]* @str41) ; <i32> [#uses=0]
  %2 = call i32 (...)* @_ssdm_op_SpecFifo(i1* %output.V.last.V, [8 x i8]* @str40, i32 0, i32 0, [8 x i8]* @str40) ; <i32> [#uses=0]
  %3 = call i32 (...)* @_ssdm_op_SpecFifo(i1* %output.V.user.V, [8 x i8]* @str39, i32 0, i32 0, [8 x i8]* @str39) ; <i32> [#uses=0]
  %4 = call i32 (...)* @_ssdm_op_SpecFifo(i8* %output.V.strb.V, [8 x i8]* @str38, i32 0, i32 0, [8 x i8]* @str38) ; <i32> [#uses=0]
  %5 = call i32 (...)* @_ssdm_op_SpecFifo(i8* %output.V.keep.V, [8 x i8]* @str37, i32 0, i32 0, [8 x i8]* @str37) ; <i32> [#uses=0]
  %6 = call i32 (...)* @_ssdm_op_SpecFifo(i64* %output.V.data.V, [8 x i8]* @str36, i32 0, i32 0, [8 x i8]* @str36) ; <i32> [#uses=0]
  %7 = call i32 (...)* @_ssdm_op_SpecFifo(i1* %input.V.dest.V, [8 x i8]* @str35, i32 0, i32 0, [8 x i8]* @str35) ; <i32> [#uses=0]
  %8 = call i32 (...)* @_ssdm_op_SpecFifo(i1* %input.V.id.V, [8 x i8]* @str34, i32 0, i32 0, [8 x i8]* @str34) ; <i32> [#uses=0]
  %9 = call i32 (...)* @_ssdm_op_SpecFifo(i1* %input.V.last.V, [8 x i8]* @str33, i32 0, i32 0, [8 x i8]* @str33) ; <i32> [#uses=0]
  %10 = call i32 (...)* @_ssdm_op_SpecFifo(i1* %input.V.user.V, [8 x i8]* @str32, i32 0, i32 0, [8 x i8]* @str32) ; <i32> [#uses=0]
  %11 = call i32 (...)* @_ssdm_op_SpecFifo(i8* %input.V.strb.V, [8 x i8]* @str31, i32 0, i32 0, [8 x i8]* @str31) ; <i32> [#uses=0]
  %12 = call i32 (...)* @_ssdm_op_SpecFifo(i8* %input.V.keep.V, [8 x i8]* @str30, i32 0, i32 0, [8 x i8]* @str30) ; <i32> [#uses=0]
  %13 = call i32 (...)* @_ssdm_op_SpecFifo(i64* %input.V.data.V, [8 x i8]* @str, i32 0, i32 0, [8 x i8]* @str) ; <i32> [#uses=0]
  %"img_0.data_stream[0].V" = alloca i8, align 1  ; <i8*> [#uses=5]
  %14 = call i32 (...)* @_ssdm_op_SpecChannel([22 x i8]* @str49, i32 1, [1 x i8]* @str50, [1 x i8]* @str50, i32 1, i32 1, i8* %"img_0.data_stream[0].V", i8* %"img_0.data_stream[0].V") ; <i32> [#uses=0]
  %15 = call i32 (...)* @_ssdm_op_SpecFifo(i8* %"img_0.data_stream[0].V", [8 x i8]* @str51, i32 0, i32 0, [8 x i8]* @str51) ; <i32> [#uses=0]
  %"img_0.data_stream[1].V" = alloca i8, align 1  ; <i8*> [#uses=5]
  %16 = call i32 (...)* @_ssdm_op_SpecChannel([22 x i8]* @str52, i32 1, [1 x i8]* @str53, [1 x i8]* @str53, i32 1, i32 1, i8* %"img_0.data_stream[1].V", i8* %"img_0.data_stream[1].V") ; <i32> [#uses=0]
  %17 = call i32 (...)* @_ssdm_op_SpecFifo(i8* %"img_0.data_stream[1].V", [8 x i8]* @str54, i32 0, i32 0, [8 x i8]* @str54) ; <i32> [#uses=0]
  %"img_0.data_stream[2].V" = alloca i8, align 1  ; <i8*> [#uses=5]
  %18 = call i32 (...)* @_ssdm_op_SpecChannel([22 x i8]* @str55, i32 1, [1 x i8]* @str56, [1 x i8]* @str56, i32 1, i32 1, i8* %"img_0.data_stream[2].V", i8* %"img_0.data_stream[2].V") ; <i32> [#uses=0]
  %19 = call i32 (...)* @_ssdm_op_SpecFifo(i8* %"img_0.data_stream[2].V", [8 x i8]* @str57, i32 0, i32 0, [8 x i8]* @str57) ; <i32> [#uses=0]
  call void @llvm.dbg.value(metadata !{i64* %input.V.data.V}, i64 0, metadata !1519)
  call void @llvm.dbg.value(metadata !{i8* %input.V.keep.V}, i64 0, metadata !1532)
  call void @llvm.dbg.value(metadata !{i8* %input.V.strb.V}, i64 0, metadata !1544)
  call void @llvm.dbg.value(metadata !{i1* %input.V.user.V}, i64 0, metadata !1545)
  call void @llvm.dbg.value(metadata !{i1* %input.V.last.V}, i64 0, metadata !1557)
  call void @llvm.dbg.value(metadata !{i1* %input.V.id.V}, i64 0, metadata !1558)
  call void @llvm.dbg.value(metadata !{i1* %input.V.dest.V}, i64 0, metadata !1559)
  call void @llvm.dbg.value(metadata !{i64* %output.V.data.V}, i64 0, metadata !1560)
  call void @llvm.dbg.value(metadata !{i8* %output.V.keep.V}, i64 0, metadata !1562)
  call void @llvm.dbg.value(metadata !{i8* %output.V.strb.V}, i64 0, metadata !1563)
  call void @llvm.dbg.value(metadata !{i1* %output.V.user.V}, i64 0, metadata !1564)
  call void @llvm.dbg.value(metadata !{i1* %output.V.last.V}, i64 0, metadata !1565)
  call void @llvm.dbg.value(metadata !{i1* %output.V.id.V}, i64 0, metadata !1566)
  call void @llvm.dbg.value(metadata !{i1* %output.V.dest.V}, i64 0, metadata !1567)
  call void @llvm.dbg.value(metadata !{i32 %rows}, i64 0, metadata !1568)
  call void @llvm.dbg.value(metadata !{i32 %cols}, i64 0, metadata !1569)
  call void @llvm.dbg.declare(metadata !{i8* %"img_0.data_stream[0].V"}, metadata !1570), !dbg !1576
  call void @llvm.dbg.declare(metadata !{i8* %"img_0.data_stream[1].V"}, metadata !1577), !dbg !1576
  call void @llvm.dbg.declare(metadata !{i8* %"img_0.data_stream[2].V"}, metadata !1578), !dbg !1576
  call void (...)* @_ssdm_op_SpecIFCore(i64* %input.V.data.V, i8* %input.V.keep.V, i8* %input.V.strb.V, i1* %input.V.user.V, i1* %input.V.last.V, i1* %input.V.id.V, i1* %input.V.dest.V, [1 x i8]* @.str20, [5 x i8]* @.str32, [1 x i8]* @.str20, [1 x i8]* @.str20, [1 x i8]* @.str20, [25 x i8]* @.str33), !dbg !1579
  call void (...)* @_ssdm_op_SpecIFCore(i64* %output.V.data.V, i8* %output.V.keep.V, i8* %output.V.strb.V, i1* %output.V.user.V, i1* %output.V.last.V, i1* %output.V.id.V, i1* %output.V.dest.V, [1 x i8]* @.str20, [5 x i8]* @.str32, [1 x i8]* @.str20, [1 x i8]* @.str20, [1 x i8]* @.str20, [26 x i8]* @.str34), !dbg !1580
  call void (...)* @_ssdm_op_SpecIFCore(i32 %rows, [1 x i8]* @.str20, [10 x i8]* @.str35, [1 x i8]* @.str20, [1 x i8]* @.str20, [1 x i8]* @.str20, [24 x i8]* @.str36), !dbg !1581
  call void (...)* @_ssdm_op_SpecIFCore(i32 %cols, [1 x i8]* @.str20, [10 x i8]* @.str35, [1 x i8]* @.str20, [1 x i8]* @.str20, [1 x i8]* @.str20, [24 x i8]* @.str36), !dbg !1582
  call void (...)* @_ssdm_op_SpecIFCore(i32 0, [1 x i8]* @.str20, [10 x i8]* @.str35, [1 x i8]* @.str20, [1 x i8]* @.str20, [1 x i8]* @.str20, [24 x i8]* @.str36), !dbg !1583
  call void (...)* @_ssdm_op_SpecWire(i32 %rows, [10 x i8]* @.str37, i32 0, i32 0, [1 x i8]* @.str20) nounwind, !dbg !1584
  call void (...)* @_ssdm_op_SpecWire(i32 %cols, [10 x i8]* @.str37, i32 0, i32 0, [1 x i8]* @.str20) nounwind, !dbg !1585
  call void @llvm.dbg.value(metadata !{i32 %rows}, i64 0, metadata !1586) nounwind
  call void @llvm.dbg.value(metadata !{i32 %cols}, i64 0, metadata !1588) nounwind
  call void @llvm.dbg.value(metadata !{i32 %rows}, i64 0, metadata !1586) nounwind
  call void @llvm.dbg.value(metadata !{i32 %cols}, i64 0, metadata !1588) nounwind
  %call.ret1 = call fastcc %"hls::Mat<1080, 1920, 16>::init_ret" @"hls::Mat<1080, 1920, 16>::init"(i1 undef, i1 undef, i1 undef, i1 undef, i32 %rows, i32 %cols), !dbg !1589 ; <%"hls::Mat<1080, 1920, 16>::init_ret"> [#uses=4]
  %img_0.rows.V = extractvalue %"hls::Mat<1080, 1920, 16>::init_ret" %call.ret1, 0, !dbg !1589 ; <i12> [#uses=1]
  call void @llvm.dbg.value(metadata !{i12 %img_0.rows.V}, i64 0, metadata !1593), !dbg !1589
  %img_0.rows.V.channel22 = extractvalue %"hls::Mat<1080, 1920, 16>::init_ret" %call.ret1, 1, !dbg !1589 ; <i12> [#uses=1]
  %img_0.cols.V = extractvalue %"hls::Mat<1080, 1920, 16>::init_ret" %call.ret1, 2, !dbg !1589 ; <i12> [#uses=1]
  call void @llvm.dbg.value(metadata !{i12 %img_0.cols.V}, i64 0, metadata !1602), !dbg !1589
  %img_0.cols.V.channel23 = extractvalue %"hls::Mat<1080, 1920, 16>::init_ret" %call.ret1, 3, !dbg !1589 ; <i12> [#uses=1]
  %call.ret = call fastcc %"hls::Mat<1080, 1920, 16>::init.1_ret" @"hls::Mat<1080, 1920, 16>::init.1"(i1 undef, i1 undef, i32 %rows, i32 %cols), !dbg !1603 ; <%"hls::Mat<1080, 1920, 16>::init.1_ret"> [#uses=0]
  call fastcc void @"hls::AXIvideo2Mat<64, 1080, 1920, 16>"(i64* %input.V.data.V, i8* %input.V.keep.V, i8* %input.V.strb.V, i1* %input.V.user.V, i1* %input.V.last.V, i1* %input.V.id.V, i1* %input.V.dest.V, i12 %img_0.rows.V, i12 %img_0.cols.V, i8* %"img_0.data_stream[0].V", i8* %"img_0.data_stream[1].V", i8* %"img_0.data_stream[2].V"), !dbg !1605
  call fastcc void @"hls::Mat2AXIvideo<64, 1080, 1920, 16>"(i12 %img_0.rows.V.channel22, i12 %img_0.cols.V.channel23, i8* %"img_0.data_stream[0].V", i8* %"img_0.data_stream[1].V", i8* %"img_0.data_stream[2].V", i64* %output.V.data.V, i8* %output.V.keep.V, i8* %output.V.strb.V, i1* %output.V.user.V, i1* %output.V.last.V, i1* %output.V.id.V, i1* %output.V.dest.V), !dbg !1606
  ret void, !dbg !1607
}

declare void @_ssdm_op_SpecWire(...) nounwind

declare void @_ssdm_op_SpecDataflowPipeline(...) nounwind

declare void @_ssdm_op_IfRead.Stream.i8P.i8P(i8*, i8*)

declare void @"_ssdm_op_IfRead.Stream.struct.ap_axiu<64,1,1,1>P.struct.ap_axiu<64,1,1,1>P"(i64*, i8*, i8*, i1*, i1*, i1*, i1*, i64*, i8*, i8*, i1*, i1*, i1*, i1*)

declare void @"_ssdm_op_IfWrite.Stream.struct.ap_axiu<64,1,1,1>P.struct.ap_axiu<64,1,1,1>P"(i64*, i8*, i8*, i1*, i1*, i1*, i1*, i64*, i8*, i8*, i1*, i1*, i1*, i1*)

declare void @_ssdm_op_IfWrite.Stream.i8P.i8P(i8*, i8*)

declare void @llvm.dbg.value(metadata, i64, metadata) nounwind readnone

declare void @_GLOBAL__I__Z5SobelRN3hls3MatILi1080ELi1920ELi16EEES2_ii() nounwind

declare void @_GLOBAL__D__Z5SobelRN3hls3MatILi1080ELi1920ELi16EEES2_ii() nounwind

declare void @_ssdm_AssertFail(i8*, i8*, i32, i8*)

declare i32 @_ssdm_op_SpecRegionBegin(...)

declare i32 @_ssdm_op_SpecRegionEnd(...)

declare void @_ssdm_op_SpecIFCore(...)

declare i32 @_ssdm_op_SpecFifo(...)

declare i8 @_ssdm_op_PartSelect.i8.i64.i32.i32(i64, i32, i32) nounwind readnone

declare i64 @_ssdm_op_BitConcatenate.i64.i40.i8.i8.i8(i40, i8, i8, i8) nounwind readnone

declare i32 @_ssdm_op_SpecChannel(...)

define internal fastcc void @"hls::AXIvideo2Mat<64, 1080, 1920, 16>"(i64* %AXI_video_strm.V.data.V, i8* %AXI_video_strm.V.keep.V, i8* %AXI_video_strm.V.strb.V, i1* %AXI_video_strm.V.user.V, i1* %AXI_video_strm.V.last.V, i1* %AXI_video_strm.V.id.V, i1* %AXI_video_strm.V.dest.V, i12 %img.rows.V.read, i12 %img.cols.V.read, i8* %"img.data_stream[0].V", i8* %"img.data_stream[1].V", i8* %"img.data_stream[2].V") {
entry:
  %0 = call i32 (...)* @_ssdm_op_SpecFifo(i8* %"img.data_stream[2].V", [8 x i8]* @str57, i32 0, i32 0, [8 x i8]* @str57) ; <i32> [#uses=0]
  %1 = call i32 (...)* @_ssdm_op_SpecFifo(i8* %"img.data_stream[1].V", [8 x i8]* @str54, i32 0, i32 0, [8 x i8]* @str54) ; <i32> [#uses=0]
  %2 = call i32 (...)* @_ssdm_op_SpecFifo(i8* %"img.data_stream[0].V", [8 x i8]* @str51, i32 0, i32 0, [8 x i8]* @str51) ; <i32> [#uses=0]
  %3 = call i32 (...)* @_ssdm_op_SpecFifo(i1* %AXI_video_strm.V.dest.V, [8 x i8]* @str35, i32 0, i32 0, [8 x i8]* @str35) ; <i32> [#uses=0]
  %4 = call i32 (...)* @_ssdm_op_SpecFifo(i1* %AXI_video_strm.V.id.V, [8 x i8]* @str34, i32 0, i32 0, [8 x i8]* @str34) ; <i32> [#uses=0]
  %5 = call i32 (...)* @_ssdm_op_SpecFifo(i1* %AXI_video_strm.V.last.V, [8 x i8]* @str33, i32 0, i32 0, [8 x i8]* @str33) ; <i32> [#uses=0]
  %6 = call i32 (...)* @_ssdm_op_SpecFifo(i1* %AXI_video_strm.V.user.V, [8 x i8]* @str32, i32 0, i32 0, [8 x i8]* @str32) ; <i32> [#uses=0]
  %7 = call i32 (...)* @_ssdm_op_SpecFifo(i8* %AXI_video_strm.V.strb.V, [8 x i8]* @str31, i32 0, i32 0, [8 x i8]* @str31) ; <i32> [#uses=0]
  %8 = call i32 (...)* @_ssdm_op_SpecFifo(i8* %AXI_video_strm.V.keep.V, [8 x i8]* @str30, i32 0, i32 0, [8 x i8]* @str30) ; <i32> [#uses=0]
  %9 = call i32 (...)* @_ssdm_op_SpecFifo(i64* %AXI_video_strm.V.data.V, [8 x i8]* @str, i32 0, i32 0, [8 x i8]* @str) ; <i32> [#uses=0]
  call void (...)* @_ssdm_op_SpecIFCore(i64* %AXI_video_strm.V.data.V, i8* %AXI_video_strm.V.keep.V, i8* %AXI_video_strm.V.strb.V, i1* %AXI_video_strm.V.user.V, i1* %AXI_video_strm.V.last.V, i1* %AXI_video_strm.V.id.V, i1* %AXI_video_strm.V.dest.V, [1 x i8]* @.str20, [5 x i8]* @.str32, [1 x i8]* @.str20, [1 x i8]* @.str20, [1 x i8]* @.str20, [25 x i8]* @.str33)
  %tmp.4 = alloca i8, align 1                     ; <i8*> [#uses=6]
  %tmp.data.V.1 = alloca i64, align 8             ; <i64*> [#uses=2]
  %tmp.keep.V.1 = alloca i8, align 1              ; <i8*> [#uses=1]
  %tmp.strb.V.1 = alloca i8, align 1              ; <i8*> [#uses=1]
  %tmp.user.V.1 = alloca i1, align 1              ; <i1*> [#uses=1]
  %tmp.last.V.1 = alloca i1, align 1              ; <i1*> [#uses=2]
  %tmp.id.V.1 = alloca i1, align 1                ; <i1*> [#uses=1]
  %tmp.dest.V.1 = alloca i1, align 1              ; <i1*> [#uses=1]
  %tmp.data.V.2 = alloca i64, align 8             ; <i64*> [#uses=2]
  %tmp.keep.V.2 = alloca i8, align 1              ; <i8*> [#uses=1]
  %tmp.strb.V.2 = alloca i8, align 1              ; <i8*> [#uses=1]
  %tmp.user.V.2 = alloca i1, align 1              ; <i1*> [#uses=1]
  %tmp.last.V.2 = alloca i1, align 1              ; <i1*> [#uses=2]
  %tmp.id.V.2 = alloca i1, align 1                ; <i1*> [#uses=1]
  %tmp.dest.V.2 = alloca i1, align 1              ; <i1*> [#uses=1]
  %tmp.data.V = alloca i64, align 8               ; <i64*> [#uses=2]
  %tmp.keep.V = alloca i8, align 1                ; <i8*> [#uses=1]
  %tmp.strb.V = alloca i8, align 1                ; <i8*> [#uses=1]
  %tmp.user.V = alloca i1, align 1                ; <i1*> [#uses=2]
  %tmp.last.V = alloca i1, align 1                ; <i1*> [#uses=2]
  %tmp.id.V = alloca i1, align 1                  ; <i1*> [#uses=1]
  %tmp.dest.V = alloca i1, align 1                ; <i1*> [#uses=1]
  call void @llvm.dbg.value(metadata !{i64* %AXI_video_strm.V.data.V}, i64 0, metadata !1608)
  call void @llvm.dbg.value(metadata !{i8* %AXI_video_strm.V.keep.V}, i64 0, metadata !1616)
  call void @llvm.dbg.value(metadata !{i8* %AXI_video_strm.V.strb.V}, i64 0, metadata !1617)
  call void @llvm.dbg.value(metadata !{i1* %AXI_video_strm.V.user.V}, i64 0, metadata !1618)
  call void @llvm.dbg.value(metadata !{i1* %AXI_video_strm.V.last.V}, i64 0, metadata !1619)
  call void @llvm.dbg.value(metadata !{i1* %AXI_video_strm.V.id.V}, i64 0, metadata !1620)
  call void @llvm.dbg.value(metadata !{i1* %AXI_video_strm.V.dest.V}, i64 0, metadata !1621)
  call void @llvm.dbg.value(metadata !{i12 %img.rows.V.read}, i64 0, metadata !1622)
  call void @llvm.dbg.value(metadata !{i12 %img.cols.V.read}, i64 0, metadata !1624)
  call void @llvm.dbg.value(metadata !{i8* %"img.data_stream[0].V"}, i64 0, metadata !1625)
  call void @llvm.dbg.value(metadata !{i8* %"img.data_stream[1].V"}, i64 0, metadata !1627)
  call void @llvm.dbg.value(metadata !{i8* %"img.data_stream[2].V"}, i64 0, metadata !1628)
  call void @llvm.dbg.value(metadata !{i12 %img.rows.V.read}, i64 0, metadata !1629), !dbg !1633
  call void @llvm.dbg.value(metadata !{i12 %img.cols.V.read}, i64 0, metadata !1634), !dbg !1636
  br label %bb3, !dbg !1637

bb2:                                              ; preds = %bb3
  %tmp = call i32 (...)* @_ssdm_op_SpecRegionBegin([13 x i8]* @.str25), !dbg !1638 ; <i32> [#uses=1]
  call void (...)* @_ssdm_op_SpecPipeline(i32 1, i32 1, i32 1, [1 x i8]* @.str20) nounwind, !dbg !1639
  call void @llvm.dbg.value(metadata !{i64* %AXI_video_strm.V.data.V}, i64 0, metadata !1640)
  call void @llvm.dbg.value(metadata !{i8* %AXI_video_strm.V.keep.V}, i64 0, metadata !1644)
  call void @llvm.dbg.value(metadata !{i8* %AXI_video_strm.V.strb.V}, i64 0, metadata !1645)
  call void @llvm.dbg.value(metadata !{i1* %AXI_video_strm.V.user.V}, i64 0, metadata !1646)
  call void @llvm.dbg.value(metadata !{i1* %AXI_video_strm.V.last.V}, i64 0, metadata !1647)
  call void @llvm.dbg.value(metadata !{i1* %AXI_video_strm.V.id.V}, i64 0, metadata !1648)
  call void @llvm.dbg.value(metadata !{i1* %AXI_video_strm.V.dest.V}, i64 0, metadata !1649)
  call void @llvm.dbg.value(metadata !{i64* %AXI_video_strm.V.data.V}, i64 0, metadata !1650)
  call void @llvm.dbg.value(metadata !{i8* %AXI_video_strm.V.keep.V}, i64 0, metadata !1652)
  call void @llvm.dbg.value(metadata !{i8* %AXI_video_strm.V.strb.V}, i64 0, metadata !1653)
  call void @llvm.dbg.value(metadata !{i1* %AXI_video_strm.V.user.V}, i64 0, metadata !1654)
  call void @llvm.dbg.value(metadata !{i1* %AXI_video_strm.V.last.V}, i64 0, metadata !1655)
  call void @llvm.dbg.value(metadata !{i1* %AXI_video_strm.V.id.V}, i64 0, metadata !1656)
  call void @llvm.dbg.value(metadata !{i1* %AXI_video_strm.V.dest.V}, i64 0, metadata !1657)
  call void @llvm.dbg.declare(metadata !{i64* %tmp.data.V}, metadata !1658), !dbg !1662
  call void @llvm.dbg.declare(metadata !{i8* %tmp.keep.V}, metadata !1666), !dbg !1662
  call void @llvm.dbg.declare(metadata !{i8* %tmp.strb.V}, metadata !1667), !dbg !1662
  call void @llvm.dbg.declare(metadata !{i1* %tmp.user.V}, metadata !1668), !dbg !1662
  call void @llvm.dbg.declare(metadata !{i1* %tmp.last.V}, metadata !1669), !dbg !1662
  call void @llvm.dbg.declare(metadata !{i1* %tmp.id.V}, metadata !1670), !dbg !1662
  call void @llvm.dbg.declare(metadata !{i1* %tmp.dest.V}, metadata !1671), !dbg !1662
  call void @"_ssdm_op_IfRead.Stream.struct.ap_axiu<64,1,1,1>P.struct.ap_axiu<64,1,1,1>P"(i64* %AXI_video_strm.V.data.V, i8* %AXI_video_strm.V.keep.V, i8* %AXI_video_strm.V.strb.V, i1* %AXI_video_strm.V.user.V, i1* %AXI_video_strm.V.last.V, i1* %AXI_video_strm.V.id.V, i1* %AXI_video_strm.V.dest.V, i64* %tmp.data.V, i8* %tmp.keep.V, i8* %tmp.strb.V, i1* %tmp.user.V, i1* %tmp.last.V, i1* %tmp.id.V, i1* %tmp.dest.V), !dbg !1672
  call void @llvm.dbg.value(metadata !{i64* %tmp.data.V}, i64 0, metadata !1673)
  call void @llvm.dbg.value(metadata !{i8* %tmp.keep.V}, i64 0, metadata !1676)
  call void @llvm.dbg.value(metadata !{i8* %tmp.strb.V}, i64 0, metadata !1678)
  call void @llvm.dbg.value(metadata !{i1* %tmp.user.V}, i64 0, metadata !1679)
  call void @llvm.dbg.value(metadata !{i1* %tmp.last.V}, i64 0, metadata !1681)
  call void @llvm.dbg.value(metadata !{i1* %tmp.id.V}, i64 0, metadata !1682)
  call void @llvm.dbg.value(metadata !{i1* %tmp.dest.V}, i64 0, metadata !1683)
  %axi.data.V.3 = load i64* %tmp.data.V, align 8, !dbg !1684 ; <i64> [#uses=1]
  call void @llvm.dbg.value(metadata !{i64 %axi.data.V.3}, i64 0, metadata !1688), !dbg !1684
  %axi.user.V = load i1* %tmp.user.V, align 2, !dbg !1690 ; <i1> [#uses=1]
  call void @llvm.dbg.value(metadata !{i1 %axi.user.V}, i64 0, metadata !1692), !dbg !1690
  %axi.last.V.2 = load i1* %tmp.last.V, align 1, !dbg !1690 ; <i1> [#uses=1]
  call void @llvm.dbg.value(metadata !{i1 %axi.last.V.2}, i64 0, metadata !1693), !dbg !1690
  call void @llvm.dbg.value(metadata !{i1 %axi.user.V}, i64 0, metadata !1694), !dbg !1695
  %10 = call i32 (...)* @_ssdm_op_SpecRegionEnd([13 x i8]* @.str25, i32 %tmp), !dbg !1696 ; <i32> [#uses=0]
  br label %bb3, !dbg !1696

bb3:                                              ; preds = %bb2, %entry
  %axi.data.V = phi i64 [ undef, %entry ], [ %axi.data.V.3, %bb2 ] ; <i64> [#uses=1]
  %axi.last.V = phi i1 [ undef, %entry ], [ %axi.last.V.2, %bb2 ] ; <i1> [#uses=1]
  %axi.user.V.2 = phi i1 [ false, %entry ], [ %axi.user.V, %bb2 ] ; <i1> [#uses=2]
  call void @llvm.dbg.value(metadata !{i64 %axi.data.V}, i64 0, metadata !1688)
  call void @llvm.dbg.value(metadata !{i1 %axi.user.V.2}, i64 0, metadata !1692)
  call void @llvm.dbg.value(metadata !{i1 %axi.last.V}, i64 0, metadata !1693)
  call void @llvm.dbg.value(metadata !{i1 %axi.user.V.2}, i64 0, metadata !1694)
  br i1 %axi.user.V.2, label %bb37, label %bb2, !dbg !1638

bb6:                                              ; preds = %bb37
  %tmp.1 = call i32 (...)* @_ssdm_op_SpecRegionBegin([13 x i8]* @.str26), !dbg !1697 ; <i32> [#uses=1]
  call void (...)* @_ssdm_op_SpecLoopTripCount(i32 0, i32 1080, i32 0, [1 x i8]* @.str20) nounwind, !dbg !1700
  br label %bb29, !dbg !1701

bb7:                                              ; preds = %bb29
  %tmp.2 = call i32 (...)* @_ssdm_op_SpecRegionBegin([13 x i8]* @.str27), !dbg !1701 ; <i32> [#uses=1]
  call void (...)* @_ssdm_op_SpecLoopTripCount(i32 0, i32 1920, i32 0, [1 x i8]* @.str20) nounwind, !dbg !1703
  call void (...)* @_ssdm_SpecLoopFlatten(i32 1, [1 x i8]* @.str20) nounwind, !dbg !1704
  call void (...)* @_ssdm_op_SpecPipeline(i32 1, i32 1, i32 1, [1 x i8]* @.str20) nounwind, !dbg !1705
  br i1 %sof.2, label %bb14, label %bb9, !dbg !1706

bb9:                                              ; preds = %bb7
  br i1 %eol, label %bb14, label %bb12, !dbg !1707

bb12:                                             ; preds = %bb9
  call void @llvm.dbg.value(metadata !{i64* %AXI_video_strm.V.data.V}, i64 0, metadata !1640)
  call void @llvm.dbg.value(metadata !{i8* %AXI_video_strm.V.keep.V}, i64 0, metadata !1644)
  call void @llvm.dbg.value(metadata !{i8* %AXI_video_strm.V.strb.V}, i64 0, metadata !1645)
  call void @llvm.dbg.value(metadata !{i1* %AXI_video_strm.V.user.V}, i64 0, metadata !1646)
  call void @llvm.dbg.value(metadata !{i1* %AXI_video_strm.V.last.V}, i64 0, metadata !1647)
  call void @llvm.dbg.value(metadata !{i1* %AXI_video_strm.V.id.V}, i64 0, metadata !1648)
  call void @llvm.dbg.value(metadata !{i1* %AXI_video_strm.V.dest.V}, i64 0, metadata !1649)
  call void @llvm.dbg.declare(metadata !{i64* %tmp.data.V.1}, metadata !1658), !dbg !1708
  call void @llvm.dbg.declare(metadata !{i8* %tmp.keep.V.1}, metadata !1666), !dbg !1708
  call void @llvm.dbg.declare(metadata !{i8* %tmp.strb.V.1}, metadata !1667), !dbg !1708
  call void @llvm.dbg.declare(metadata !{i1* %tmp.user.V.1}, metadata !1668), !dbg !1708
  call void @llvm.dbg.declare(metadata !{i1* %tmp.last.V.1}, metadata !1669), !dbg !1708
  call void @llvm.dbg.declare(metadata !{i1* %tmp.id.V.1}, metadata !1670), !dbg !1708
  call void @llvm.dbg.declare(metadata !{i1* %tmp.dest.V.1}, metadata !1671), !dbg !1708
  call void @"_ssdm_op_IfRead.Stream.struct.ap_axiu<64,1,1,1>P.struct.ap_axiu<64,1,1,1>P"(i64* %AXI_video_strm.V.data.V, i8* %AXI_video_strm.V.keep.V, i8* %AXI_video_strm.V.strb.V, i1* %AXI_video_strm.V.user.V, i1* %AXI_video_strm.V.last.V, i1* %AXI_video_strm.V.id.V, i1* %AXI_video_strm.V.dest.V, i64* %tmp.data.V.1, i8* %tmp.keep.V.1, i8* %tmp.strb.V.1, i1* %tmp.user.V.1, i1* %tmp.last.V.1, i1* %tmp.id.V.1, i1* %tmp.dest.V.1), !dbg !1711
  call void @llvm.dbg.value(metadata !{i64* %tmp.data.V.1}, i64 0, metadata !1673)
  call void @llvm.dbg.value(metadata !{i8* %tmp.keep.V.1}, i64 0, metadata !1676)
  call void @llvm.dbg.value(metadata !{i8* %tmp.strb.V.1}, i64 0, metadata !1678)
  call void @llvm.dbg.value(metadata !{i1* %tmp.user.V.1}, i64 0, metadata !1679)
  call void @llvm.dbg.value(metadata !{i1* %tmp.last.V.1}, i64 0, metadata !1681)
  call void @llvm.dbg.value(metadata !{i1* %tmp.id.V.1}, i64 0, metadata !1682)
  call void @llvm.dbg.value(metadata !{i1* %tmp.dest.V.1}, i64 0, metadata !1683)
  %axi.data.V.6 = load i64* %tmp.data.V.1, align 8, !dbg !1712 ; <i64> [#uses=1]
  call void @llvm.dbg.value(metadata !{i64 %axi.data.V.6}, i64 0, metadata !1688), !dbg !1712
  %axi.last.V.8 = load i1* %tmp.last.V.1, align 1, !dbg !1715 ; <i1> [#uses=2]
  call void @llvm.dbg.value(metadata !{i1 %axi.last.V.8}, i64 0, metadata !1693), !dbg !1715
  call void @llvm.dbg.value(metadata !{i1 %axi.last.V.8}, i64 0, metadata !1716), !dbg !1717
  br label %bb14, !dbg !1717

bb14:                                             ; preds = %bb12, %bb9, %bb7
  %axi.data.V.8 = phi i64 [ %axi.data.V.6, %bb12 ], [ %axi.data.V.2, %bb7 ], [ 0, %bb9 ] ; <i64> [#uses=4]
  %axi.last.V.9 = phi i1 [ %axi.last.V.8, %bb12 ], [ %eol.6, %bb7 ], [ false, %bb9 ] ; <i1> [#uses=1]
  %sof.1 = phi i1 [ %sof.2, %bb12 ], [ false, %bb7 ], [ %sof.2, %bb9 ] ; <i1> [#uses=1]
  %eol.5 = phi i1 [ %axi.last.V.8, %bb12 ], [ %eol.6, %bb7 ], [ %eol, %bb9 ] ; <i1> [#uses=1]
  call void @llvm.dbg.value(metadata !{i64 %axi.data.V.8}, i64 0, metadata !1688)
  call void @llvm.dbg.value(metadata !{i1 %axi.last.V.9}, i64 0, metadata !1693)
  call void @llvm.dbg.value(metadata !{i1 %sof.1}, i64 0, metadata !1694)
  call void @llvm.dbg.value(metadata !{i1 %eol.5}, i64 0, metadata !1716)
  call void @llvm.dbg.value(metadata !{i64 %axi.data.V.8}, i64 0, metadata !1718)
  call void @llvm.dbg.value(metadata !{i1 %axi.last.V.9}, i64 0, metadata !1723)
  call void @llvm.dbg.value(metadata !{i64 %axi.data.V.8}, i64 0, metadata !1724) nounwind, !dbg !1728
  %"pix.val[0]" = call i8 @_ssdm_op_PartSelect.i8.i64.i32.i32(i64 %axi.data.V.8, i32 0, i32 7), !dbg !1728 ; <i8> [#uses=1]
  call void @llvm.dbg.value(metadata !{i8 %"pix.val[0]"}, i64 0, metadata !1736), !dbg !1731
  call void @llvm.dbg.value(metadata !{i64 %axi.data.V.8}, i64 0, metadata !1718)
  call void @llvm.dbg.value(metadata !{i1 %axi.last.V.9}, i64 0, metadata !1723)
  call void @llvm.dbg.value(metadata !{i64 %axi.data.V.8}, i64 0, metadata !1724) nounwind, !dbg !1728
  %"pix.val[1]" = call i8 @_ssdm_op_PartSelect.i8.i64.i32.i32(i64 %axi.data.V.8, i32 8, i32 15), !dbg !1728 ; <i8> [#uses=1]
  call void @llvm.dbg.value(metadata !{i8 %"pix.val[1]"}, i64 0, metadata !1738), !dbg !1731
  call void @llvm.dbg.value(metadata !{i64 %axi.data.V.8}, i64 0, metadata !1718)
  call void @llvm.dbg.value(metadata !{i1 %axi.last.V.9}, i64 0, metadata !1723)
  call void @llvm.dbg.value(metadata !{i64 %axi.data.V.8}, i64 0, metadata !1724) nounwind, !dbg !1728
  %"pix.val[2]" = call i8 @_ssdm_op_PartSelect.i8.i64.i32.i32(i64 %axi.data.V.8, i32 16, i32 23), !dbg !1728 ; <i8> [#uses=1]
  call void @llvm.dbg.value(metadata !{i8 %"pix.val[2]"}, i64 0, metadata !1739), !dbg !1731
  call void @llvm.dbg.value(metadata !{i8 %"pix.val[0]"}, i64 0, metadata !1740)
  call void @llvm.dbg.value(metadata !{i8 %"pix.val[1]"}, i64 0, metadata !1742)
  call void @llvm.dbg.value(metadata !{i8 %"pix.val[2]"}, i64 0, metadata !1743)
  call void @llvm.dbg.value(metadata !{i12 %img.rows.V.read}, i64 0, metadata !1744)
  call void @llvm.dbg.value(metadata !{i12 %img.cols.V.read}, i64 0, metadata !1748)
  call void @llvm.dbg.value(metadata !{i8* %"img.data_stream[0].V"}, i64 0, metadata !1749)
  call void @llvm.dbg.value(metadata !{i8* %"img.data_stream[1].V"}, i64 0, metadata !1750)
  call void @llvm.dbg.value(metadata !{i8* %"img.data_stream[2].V"}, i64 0, metadata !1751)
  call void @llvm.dbg.value(metadata !{i8 %"pix.val[0]"}, i64 0, metadata !1752)
  call void @llvm.dbg.value(metadata !{i8 %"pix.val[1]"}, i64 0, metadata !1754)
  call void @llvm.dbg.value(metadata !{i8 %"pix.val[2]"}, i64 0, metadata !1755)
  call void @llvm.dbg.value(metadata !{i12 %img.rows.V.read}, i64 0, metadata !1756)
  call void @llvm.dbg.value(metadata !{i12 %img.cols.V.read}, i64 0, metadata !1758)
  call void @llvm.dbg.value(metadata !{i8* %"img.data_stream[0].V"}, i64 0, metadata !1759)
  call void @llvm.dbg.value(metadata !{i8* %"img.data_stream[1].V"}, i64 0, metadata !1760)
  call void @llvm.dbg.value(metadata !{i8* %"img.data_stream[2].V"}, i64 0, metadata !1761)
  call void @llvm.dbg.declare(metadata !{i8* %tmp.4}, metadata !1762) nounwind, !dbg !1765
  store i8 %"pix.val[0]", i8* %tmp.4, align 1, !dbg !1774
  call void @_ssdm_op_IfWrite.Stream.i8P.i8P(i8* %"img.data_stream[0].V", i8* %tmp.4) nounwind, !dbg !1775
  call void @llvm.dbg.declare(metadata !{i8* %tmp.4}, metadata !1762) nounwind, !dbg !1765
  store i8 %"pix.val[1]", i8* %tmp.4, align 1, !dbg !1774
  call void @_ssdm_op_IfWrite.Stream.i8P.i8P(i8* %"img.data_stream[1].V", i8* %tmp.4) nounwind, !dbg !1775
  call void @llvm.dbg.declare(metadata !{i8* %tmp.4}, metadata !1762) nounwind, !dbg !1765
  store i8 %"pix.val[2]", i8* %tmp.4, align 1, !dbg !1774
  call void @_ssdm_op_IfWrite.Stream.i8P.i8P(i8* %"img.data_stream[2].V", i8* %tmp.4) nounwind, !dbg !1775
  %11 = call i32 (...)* @_ssdm_op_SpecRegionEnd([13 x i8]* @.str27, i32 %tmp.2), !dbg !1776 ; <i32> [#uses=0]
  call void @llvm.dbg.value(metadata !{i12 %t.V.1}, i64 0, metadata !1777), !dbg !1781
  %j.V = add i12 %t.V.1, 1, !dbg !1782            ; <i12> [#uses=1]
  call void @llvm.dbg.value(metadata !{i12 %j.V}, i64 0, metadata !1787), !dbg !1782
  br label %bb29, !dbg !1701

bb29:                                             ; preds = %bb14, %bb6
  %axi.data.V.2 = phi i64 [ %axi.data.V.1, %bb6 ], [ %axi.data.V.8, %bb14 ] ; <i64> [#uses=2]
  %eol.6 = phi i1 [ %axi.last.V.1, %bb6 ], [ %axi.last.V.9, %bb14 ] ; <i1> [#uses=3]
  %t.V.1 = phi i12 [ 0, %bb6 ], [ %j.V, %bb14 ]   ; <i12> [#uses=2]
  %sof.2 = phi i1 [ %sof.3, %bb6 ], [ %sof.1, %bb14 ] ; <i1> [#uses=4]
  %eol = phi i1 [ false, %bb6 ], [ %eol.5, %bb14 ] ; <i1> [#uses=3]
  call void @llvm.dbg.value(metadata !{i1 %eol.6}, i64 0, metadata !1716), !dbg !1789
  call void @llvm.dbg.value(metadata !{i64 %axi.data.V.2}, i64 0, metadata !1688)
  call void @llvm.dbg.value(metadata !{i1 %eol.6}, i64 0, metadata !1693)
  call void @llvm.dbg.value(metadata !{i12 %t.V.1}, i64 0, metadata !1787)
  call void @llvm.dbg.value(metadata !{i1 %sof.2}, i64 0, metadata !1694)
  call void @llvm.dbg.value(metadata !{i1 %eol}, i64 0, metadata !1716)
  %exitcond2 = icmp eq i12 %t.V.1, %img.cols.V.read, !dbg !1790 ; <i1> [#uses=1]
  br i1 %exitcond2, label %bb32.preheader, label %bb7, !dbg !1701

bb32.preheader:                                   ; preds = %bb29
  %eol.lcssa = phi i1 [ %eol, %bb29 ]             ; <i1> [#uses=1]
  %sof.2.lcssa = phi i1 [ %sof.2, %bb29 ]         ; <i1> [#uses=1]
  %eol.6.lcssa = phi i1 [ %eol.6, %bb29 ]         ; <i1> [#uses=1]
  %axi.data.V.2.lcssa = phi i64 [ %axi.data.V.2, %bb29 ] ; <i64> [#uses=1]
  br label %bb32

bb31:                                             ; preds = %bb32
  %tmp.3 = call i32 (...)* @_ssdm_op_SpecRegionBegin([13 x i8]* @.str28), !dbg !1795 ; <i32> [#uses=1]
  call void (...)* @_ssdm_op_SpecPipeline(i32 1, i32 1, i32 1, [1 x i8]* @.str20) nounwind, !dbg !1796
  call void @llvm.dbg.value(metadata !{i64* %AXI_video_strm.V.data.V}, i64 0, metadata !1640)
  call void @llvm.dbg.value(metadata !{i8* %AXI_video_strm.V.keep.V}, i64 0, metadata !1644)
  call void @llvm.dbg.value(metadata !{i8* %AXI_video_strm.V.strb.V}, i64 0, metadata !1645)
  call void @llvm.dbg.value(metadata !{i1* %AXI_video_strm.V.user.V}, i64 0, metadata !1646)
  call void @llvm.dbg.value(metadata !{i1* %AXI_video_strm.V.last.V}, i64 0, metadata !1647)
  call void @llvm.dbg.value(metadata !{i1* %AXI_video_strm.V.id.V}, i64 0, metadata !1648)
  call void @llvm.dbg.value(metadata !{i1* %AXI_video_strm.V.dest.V}, i64 0, metadata !1649)
  call void @llvm.dbg.value(metadata !{i64* %AXI_video_strm.V.data.V}, i64 0, metadata !1650)
  call void @llvm.dbg.value(metadata !{i8* %AXI_video_strm.V.keep.V}, i64 0, metadata !1652)
  call void @llvm.dbg.value(metadata !{i8* %AXI_video_strm.V.strb.V}, i64 0, metadata !1653)
  call void @llvm.dbg.value(metadata !{i1* %AXI_video_strm.V.user.V}, i64 0, metadata !1654)
  call void @llvm.dbg.value(metadata !{i1* %AXI_video_strm.V.last.V}, i64 0, metadata !1655)
  call void @llvm.dbg.value(metadata !{i1* %AXI_video_strm.V.id.V}, i64 0, metadata !1656)
  call void @llvm.dbg.value(metadata !{i1* %AXI_video_strm.V.dest.V}, i64 0, metadata !1657)
  call void @llvm.dbg.declare(metadata !{i64* %tmp.data.V.2}, metadata !1658), !dbg !1797
  call void @llvm.dbg.declare(metadata !{i8* %tmp.keep.V.2}, metadata !1666), !dbg !1797
  call void @llvm.dbg.declare(metadata !{i8* %tmp.strb.V.2}, metadata !1667), !dbg !1797
  call void @llvm.dbg.declare(metadata !{i1* %tmp.user.V.2}, metadata !1668), !dbg !1797
  call void @llvm.dbg.declare(metadata !{i1* %tmp.last.V.2}, metadata !1669), !dbg !1797
  call void @llvm.dbg.declare(metadata !{i1* %tmp.id.V.2}, metadata !1670), !dbg !1797
  call void @llvm.dbg.declare(metadata !{i1* %tmp.dest.V.2}, metadata !1671), !dbg !1797
  call void @"_ssdm_op_IfRead.Stream.struct.ap_axiu<64,1,1,1>P.struct.ap_axiu<64,1,1,1>P"(i64* %AXI_video_strm.V.data.V, i8* %AXI_video_strm.V.keep.V, i8* %AXI_video_strm.V.strb.V, i1* %AXI_video_strm.V.user.V, i1* %AXI_video_strm.V.last.V, i1* %AXI_video_strm.V.id.V, i1* %AXI_video_strm.V.dest.V, i64* %tmp.data.V.2, i8* %tmp.keep.V.2, i8* %tmp.strb.V.2, i1* %tmp.user.V.2, i1* %tmp.last.V.2, i1* %tmp.id.V.2, i1* %tmp.dest.V.2), !dbg !1800
  call void @llvm.dbg.value(metadata !{i64* %tmp.data.V.2}, i64 0, metadata !1673)
  call void @llvm.dbg.value(metadata !{i8* %tmp.keep.V.2}, i64 0, metadata !1676)
  call void @llvm.dbg.value(metadata !{i8* %tmp.strb.V.2}, i64 0, metadata !1678)
  call void @llvm.dbg.value(metadata !{i1* %tmp.user.V.2}, i64 0, metadata !1679)
  call void @llvm.dbg.value(metadata !{i1* %tmp.last.V.2}, i64 0, metadata !1681)
  call void @llvm.dbg.value(metadata !{i1* %tmp.id.V.2}, i64 0, metadata !1682)
  call void @llvm.dbg.value(metadata !{i1* %tmp.dest.V.2}, i64 0, metadata !1683)
  %axi.data.V.5 = load i64* %tmp.data.V.2, align 8, !dbg !1801 ; <i64> [#uses=1]
  call void @llvm.dbg.value(metadata !{i64 %axi.data.V.5}, i64 0, metadata !1688), !dbg !1801
  %axi.last.V.10 = load i1* %tmp.last.V.2, align 1, !dbg !1804 ; <i1> [#uses=2]
  call void @llvm.dbg.value(metadata !{i1 %axi.last.V.10}, i64 0, metadata !1693), !dbg !1804
  call void @llvm.dbg.value(metadata !{i1 %axi.last.V.10}, i64 0, metadata !1716), !dbg !1805
  %12 = call i32 (...)* @_ssdm_op_SpecRegionEnd([13 x i8]* @.str28, i32 %tmp.3), !dbg !1806 ; <i32> [#uses=0]
  br label %bb32, !dbg !1806

bb32:                                             ; preds = %bb31, %bb32.preheader
  %axi.data.V.4 = phi i64 [ %axi.data.V.5, %bb31 ], [ %axi.data.V.2.lcssa, %bb32.preheader ] ; <i64> [#uses=1]
  %axi.last.V.4 = phi i1 [ %axi.last.V.10, %bb31 ], [ %eol.6.lcssa, %bb32.preheader ] ; <i1> [#uses=1]
  %eol.1 = phi i1 [ %axi.last.V.10, %bb31 ], [ %eol.lcssa, %bb32.preheader ] ; <i1> [#uses=1]
  call void @llvm.dbg.value(metadata !{i64 %axi.data.V.4}, i64 0, metadata !1688)
  call void @llvm.dbg.value(metadata !{i1 %axi.last.V.4}, i64 0, metadata !1693)
  call void @llvm.dbg.value(metadata !{i1 %eol.1}, i64 0, metadata !1716)
  br i1 %eol.1, label %bb35, label %bb31, !dbg !1795

bb35:                                             ; preds = %bb32
  %axi.last.V.4.lcssa = phi i1 [ %axi.last.V.4, %bb32 ] ; <i1> [#uses=1]
  %axi.data.V.4.lcssa = phi i64 [ %axi.data.V.4, %bb32 ] ; <i64> [#uses=1]
  %13 = call i32 (...)* @_ssdm_op_SpecRegionEnd([13 x i8]* @.str26, i32 %tmp.1), !dbg !1807 ; <i32> [#uses=0]
  call void @llvm.dbg.value(metadata !{i12 %t.V}, i64 0, metadata !1777), !dbg !1808
  %i.V = add i12 %t.V, 1, !dbg !1810              ; <i12> [#uses=1]
  call void @llvm.dbg.value(metadata !{i12 %i.V}, i64 0, metadata !1812), !dbg !1810
  br label %bb37, !dbg !1809

bb37:                                             ; preds = %bb35, %bb3
  %axi.data.V.1 = phi i64 [ %axi.data.V.4.lcssa, %bb35 ], [ %axi.data.V, %bb3 ] ; <i64> [#uses=1]
  %axi.last.V.1 = phi i1 [ %axi.last.V.4.lcssa, %bb35 ], [ %axi.last.V, %bb3 ] ; <i1> [#uses=1]
  %t.V = phi i12 [ %i.V, %bb35 ], [ 0, %bb3 ]     ; <i12> [#uses=2]
  %sof.3 = phi i1 [ %sof.2.lcssa, %bb35 ], [ %axi.user.V.2, %bb3 ] ; <i1> [#uses=1]
  call void @llvm.dbg.value(metadata !{i64 %axi.data.V.1}, i64 0, metadata !1688)
  call void @llvm.dbg.value(metadata !{i1 %axi.last.V.1}, i64 0, metadata !1693)
  call void @llvm.dbg.value(metadata !{i12 %t.V}, i64 0, metadata !1812)
  call void @llvm.dbg.value(metadata !{i1 %sof.3}, i64 0, metadata !1694)
  %exitcond3 = icmp eq i12 %t.V, %img.rows.V.read, !dbg !1814 ; <i1> [#uses=1]
  br i1 %exitcond3, label %return, label %bb6, !dbg !1809

return:                                           ; preds = %bb37
  ret void
}

define internal fastcc void @"hls::Mat2AXIvideo<64, 1080, 1920, 16>"(i12 %img.rows.V.read, i12 %img.cols.V.read, i8* %"img.data_stream[0].V", i8* %"img.data_stream[1].V", i8* %"img.data_stream[2].V", i64* %AXI_video_strm.V.data.V, i8* %AXI_video_strm.V.keep.V, i8* %AXI_video_strm.V.strb.V, i1* %AXI_video_strm.V.user.V, i1* %AXI_video_strm.V.last.V, i1* %AXI_video_strm.V.id.V, i1* %AXI_video_strm.V.dest.V) {
entry:
  %0 = call i32 (...)* @_ssdm_op_SpecFifo(i8* %"img.data_stream[2].V", [8 x i8]* @str57, i32 0, i32 0, [8 x i8]* @str57) ; <i32> [#uses=0]
  %1 = call i32 (...)* @_ssdm_op_SpecFifo(i8* %"img.data_stream[1].V", [8 x i8]* @str54, i32 0, i32 0, [8 x i8]* @str54) ; <i32> [#uses=0]
  %2 = call i32 (...)* @_ssdm_op_SpecFifo(i8* %"img.data_stream[0].V", [8 x i8]* @str51, i32 0, i32 0, [8 x i8]* @str51) ; <i32> [#uses=0]
  %3 = call i32 (...)* @_ssdm_op_SpecFifo(i1* %AXI_video_strm.V.dest.V, [8 x i8]* @str42, i32 0, i32 0, [8 x i8]* @str42) ; <i32> [#uses=0]
  %4 = call i32 (...)* @_ssdm_op_SpecFifo(i1* %AXI_video_strm.V.id.V, [8 x i8]* @str41, i32 0, i32 0, [8 x i8]* @str41) ; <i32> [#uses=0]
  %5 = call i32 (...)* @_ssdm_op_SpecFifo(i1* %AXI_video_strm.V.last.V, [8 x i8]* @str40, i32 0, i32 0, [8 x i8]* @str40) ; <i32> [#uses=0]
  %6 = call i32 (...)* @_ssdm_op_SpecFifo(i1* %AXI_video_strm.V.user.V, [8 x i8]* @str39, i32 0, i32 0, [8 x i8]* @str39) ; <i32> [#uses=0]
  %7 = call i32 (...)* @_ssdm_op_SpecFifo(i8* %AXI_video_strm.V.strb.V, [8 x i8]* @str38, i32 0, i32 0, [8 x i8]* @str38) ; <i32> [#uses=0]
  %8 = call i32 (...)* @_ssdm_op_SpecFifo(i8* %AXI_video_strm.V.keep.V, [8 x i8]* @str37, i32 0, i32 0, [8 x i8]* @str37) ; <i32> [#uses=0]
  %9 = call i32 (...)* @_ssdm_op_SpecFifo(i64* %AXI_video_strm.V.data.V, [8 x i8]* @str36, i32 0, i32 0, [8 x i8]* @str36) ; <i32> [#uses=0]
  call void (...)* @_ssdm_op_SpecIFCore(i64* %AXI_video_strm.V.data.V, i8* %AXI_video_strm.V.keep.V, i8* %AXI_video_strm.V.strb.V, i1* %AXI_video_strm.V.user.V, i1* %AXI_video_strm.V.last.V, i1* %AXI_video_strm.V.id.V, i1* %AXI_video_strm.V.dest.V, [1 x i8]* @.str20, [5 x i8]* @.str32, [1 x i8]* @.str20, [1 x i8]* @.str20, [1 x i8]* @.str20, [26 x i8]* @.str34)
  %tmp.5 = alloca i8, align 1                     ; <i8*> [#uses=6]
  %tmp.data.V = alloca i64, align 8               ; <i64*> [#uses=2]
  %tmp.keep.V = alloca i8, align 1                ; <i8*> [#uses=2]
  %tmp.strb.V = alloca i8, align 1                ; <i8*> [#uses=1]
  %tmp.user.V = alloca i1, align 1                ; <i1*> [#uses=2]
  %tmp.last.V = alloca i1, align 1                ; <i1*> [#uses=2]
  %tmp.id.V = alloca i1, align 1                  ; <i1*> [#uses=1]
  %tmp.dest.V = alloca i1, align 1                ; <i1*> [#uses=1]
  call void @llvm.dbg.value(metadata !{i12 %img.rows.V.read}, i64 0, metadata !1815)
  call void @llvm.dbg.value(metadata !{i12 %img.cols.V.read}, i64 0, metadata !1820)
  call void @llvm.dbg.value(metadata !{i8* %"img.data_stream[0].V"}, i64 0, metadata !1821)
  call void @llvm.dbg.value(metadata !{i8* %"img.data_stream[1].V"}, i64 0, metadata !1822)
  call void @llvm.dbg.value(metadata !{i8* %"img.data_stream[2].V"}, i64 0, metadata !1823)
  call void @llvm.dbg.value(metadata !{i64* %AXI_video_strm.V.data.V}, i64 0, metadata !1824)
  call void @llvm.dbg.value(metadata !{i8* %AXI_video_strm.V.keep.V}, i64 0, metadata !1826)
  call void @llvm.dbg.value(metadata !{i8* %AXI_video_strm.V.strb.V}, i64 0, metadata !1827)
  call void @llvm.dbg.value(metadata !{i1* %AXI_video_strm.V.user.V}, i64 0, metadata !1828)
  call void @llvm.dbg.value(metadata !{i1* %AXI_video_strm.V.last.V}, i64 0, metadata !1829)
  call void @llvm.dbg.value(metadata !{i1* %AXI_video_strm.V.id.V}, i64 0, metadata !1830)
  call void @llvm.dbg.value(metadata !{i1* %AXI_video_strm.V.dest.V}, i64 0, metadata !1831)
  call void @llvm.dbg.value(metadata !{i12 %img.rows.V.read}, i64 0, metadata !1832), !dbg !1836
  call void @llvm.dbg.value(metadata !{i12 %img.cols.V.read}, i64 0, metadata !1837), !dbg !1839
  %retval.i.cast = zext i12 %img.cols.V.read to i13, !dbg !1840 ; <i13> [#uses=1]
  %op2.assign = add i13 %retval.i.cast, -1, !dbg !1840 ; <i13> [#uses=1]
  br label %bb17, !dbg !1843

bb2:                                              ; preds = %bb17
  %tmp = call i32 (...)* @_ssdm_op_SpecRegionBegin([13 x i8]* @.str30), !dbg !1843 ; <i32> [#uses=1]
  call void (...)* @_ssdm_op_SpecLoopTripCount(i32 0, i32 1080, i32 0, [1 x i8]* @.str20) nounwind, !dbg !1844
  br label %bb14, !dbg !1845

bb3:                                              ; preds = %bb14
  %tmp.8 = call i32 (...)* @_ssdm_op_SpecRegionBegin([13 x i8]* @.str31), !dbg !1845 ; <i32> [#uses=1]
  call void (...)* @_ssdm_op_SpecLoopTripCount(i32 0, i32 1920, i32 0, [1 x i8]* @.str20) nounwind, !dbg !1846
  call void (...)* @_ssdm_SpecLoopFlatten(i32 1, [1 x i8]* @.str20) nounwind, !dbg !1847
  call void (...)* @_ssdm_op_SpecPipeline(i32 1, i32 1, i32 1, [1 x i8]* @.str20) nounwind, !dbg !1848
  call void @llvm.dbg.value(metadata !{i1 %axi.user.V}, i64 0, metadata !1849), !dbg !1851
  call void @llvm.dbg.value(metadata !{i13 %op2.assign}, i64 0, metadata !1853)
  call void @llvm.dbg.value(metadata !{i13 %op2.assign}, i64 0, metadata !1857)
  %tmp.cast = zext i12 %t.V.2 to i13, !dbg !1859  ; <i13> [#uses=1]
  %axi.last.V = icmp eq i13 %tmp.cast, %op2.assign, !dbg !1859 ; <i1> [#uses=1]
  call void @llvm.dbg.value(metadata !{i1 %axi.last.V}, i64 0, metadata !1865), !dbg !1866
  call void @llvm.dbg.value(metadata !{i12 %img.rows.V.read}, i64 0, metadata !1868)
  call void @llvm.dbg.value(metadata !{i12 %img.cols.V.read}, i64 0, metadata !1870)
  call void @llvm.dbg.value(metadata !{i8* %"img.data_stream[0].V"}, i64 0, metadata !1871)
  call void @llvm.dbg.value(metadata !{i8* %"img.data_stream[1].V"}, i64 0, metadata !1872)
  call void @llvm.dbg.value(metadata !{i8* %"img.data_stream[2].V"}, i64 0, metadata !1873)
  call void @llvm.dbg.value(metadata !{i12 %img.rows.V.read}, i64 0, metadata !1874)
  call void @llvm.dbg.value(metadata !{i12 %img.cols.V.read}, i64 0, metadata !1876)
  call void @llvm.dbg.value(metadata !{i8* %"img.data_stream[0].V"}, i64 0, metadata !1877)
  call void @llvm.dbg.value(metadata !{i8* %"img.data_stream[1].V"}, i64 0, metadata !1878)
  call void @llvm.dbg.value(metadata !{i8* %"img.data_stream[2].V"}, i64 0, metadata !1879)
  call void @llvm.dbg.declare(metadata !{i8* %tmp.5}, metadata !1880) nounwind, !dbg !1883
  call void @_ssdm_op_IfRead.Stream.i8P.i8P(i8* %"img.data_stream[0].V", i8* %tmp.5) nounwind, !dbg !1892
  %"scl.val[0]" = load i8* %tmp.5, align 1, !dbg !1893 ; <i8> [#uses=1]
  call void @llvm.dbg.value(metadata !{i8 %"scl.val[0]"}, i64 0, metadata !1894), !dbg !1893
  call void @llvm.dbg.declare(metadata !{i8* %tmp.5}, metadata !1880) nounwind, !dbg !1883
  call void @_ssdm_op_IfRead.Stream.i8P.i8P(i8* %"img.data_stream[1].V", i8* %tmp.5) nounwind, !dbg !1892
  %"scl.val[1]" = load i8* %tmp.5, align 1, !dbg !1893 ; <i8> [#uses=1]
  call void @llvm.dbg.value(metadata !{i8 %"scl.val[1]"}, i64 0, metadata !1898), !dbg !1893
  call void @llvm.dbg.declare(metadata !{i8* %tmp.5}, metadata !1880) nounwind, !dbg !1883
  call void @_ssdm_op_IfRead.Stream.i8P.i8P(i8* %"img.data_stream[2].V", i8* %tmp.5) nounwind, !dbg !1892
  %"scl.val[2]" = load i8* %tmp.5, align 1, !dbg !1893 ; <i8> [#uses=1]
  call void @llvm.dbg.value(metadata !{i8 %"scl.val[2]"}, i64 0, metadata !1899), !dbg !1893
  call void @llvm.dbg.value(metadata !{i8 %"scl.val[0]"}, i64 0, metadata !1900), !dbg !1889
  call void @llvm.dbg.value(metadata !{i8 %"scl.val[1]"}, i64 0, metadata !1902), !dbg !1889
  call void @llvm.dbg.value(metadata !{i8 %"scl.val[2]"}, i64 0, metadata !1903), !dbg !1889
  call void @llvm.dbg.value(metadata !{i8 %"scl.val[0]"}, i64 0, metadata !1904) nounwind
  call void @llvm.dbg.value(metadata !{i8 %"scl.val[1]"}, i64 0, metadata !1904) nounwind
  call void @llvm.dbg.value(metadata !{i8 %"scl.val[2]"}, i64 0, metadata !1904) nounwind
  %axi.data.V = call i64 @_ssdm_op_BitConcatenate.i64.i40.i8.i8.i8(i40 -1, i8 %"scl.val[2]", i8 %"scl.val[1]", i8 %"scl.val[0]"), !dbg !1908 ; <i64> [#uses=1]
  call void @llvm.dbg.value(metadata !{i64 %axi.data.V}, i64 0, metadata !1916)
  call void @llvm.dbg.value(metadata !{i64 %axi.data.V}, i64 0, metadata !1917) nounwind, !dbg !1908
  call void @llvm.dbg.value(metadata !{i64 %axi.data.V}, i64 0, metadata !1916), !dbg !1908
  call void @llvm.dbg.value(metadata !{i64* %AXI_video_strm.V.data.V}, i64 0, metadata !1919)
  call void @llvm.dbg.value(metadata !{i8* %AXI_video_strm.V.keep.V}, i64 0, metadata !1921)
  call void @llvm.dbg.value(metadata !{i8* %AXI_video_strm.V.strb.V}, i64 0, metadata !1922)
  call void @llvm.dbg.value(metadata !{i1* %AXI_video_strm.V.user.V}, i64 0, metadata !1923)
  call void @llvm.dbg.value(metadata !{i1* %AXI_video_strm.V.last.V}, i64 0, metadata !1924)
  call void @llvm.dbg.value(metadata !{i1* %AXI_video_strm.V.id.V}, i64 0, metadata !1925)
  call void @llvm.dbg.value(metadata !{i1* %AXI_video_strm.V.dest.V}, i64 0, metadata !1926)
  call void @llvm.dbg.value(metadata !{i64* %AXI_video_strm.V.data.V}, i64 0, metadata !1927)
  call void @llvm.dbg.value(metadata !{i8* %AXI_video_strm.V.keep.V}, i64 0, metadata !1929)
  call void @llvm.dbg.value(metadata !{i8* %AXI_video_strm.V.strb.V}, i64 0, metadata !1930)
  call void @llvm.dbg.value(metadata !{i1* %AXI_video_strm.V.user.V}, i64 0, metadata !1931)
  call void @llvm.dbg.value(metadata !{i1* %AXI_video_strm.V.last.V}, i64 0, metadata !1932)
  call void @llvm.dbg.value(metadata !{i1* %AXI_video_strm.V.id.V}, i64 0, metadata !1933)
  call void @llvm.dbg.value(metadata !{i1* %AXI_video_strm.V.dest.V}, i64 0, metadata !1934)
  call void @llvm.dbg.declare(metadata !{i64* %tmp.data.V}, metadata !1935), !dbg !1939
  call void @llvm.dbg.declare(metadata !{i8* %tmp.keep.V}, metadata !1943), !dbg !1939
  call void @llvm.dbg.declare(metadata !{i8* %tmp.strb.V}, metadata !1944), !dbg !1939
  call void @llvm.dbg.declare(metadata !{i1* %tmp.user.V}, metadata !1945), !dbg !1939
  call void @llvm.dbg.declare(metadata !{i1* %tmp.last.V}, metadata !1946), !dbg !1939
  call void @llvm.dbg.declare(metadata !{i1* %tmp.id.V}, metadata !1947), !dbg !1939
  call void @llvm.dbg.declare(metadata !{i1* %tmp.dest.V}, metadata !1948), !dbg !1939
  store i64 %axi.data.V, i64* %tmp.data.V, align 8, !dbg !1949
  store i8 -1, i8* %tmp.keep.V, align 8, !dbg !1949
  store i1 %axi.user.V, i1* %tmp.user.V, align 2, !dbg !1949
  store i1 %axi.last.V, i1* %tmp.last.V, align 1, !dbg !1949
  call void @"_ssdm_op_IfWrite.Stream.struct.ap_axiu<64,1,1,1>P.struct.ap_axiu<64,1,1,1>P"(i64* %AXI_video_strm.V.data.V, i8* %AXI_video_strm.V.keep.V, i8* %AXI_video_strm.V.strb.V, i1* %AXI_video_strm.V.user.V, i1* %AXI_video_strm.V.last.V, i1* %AXI_video_strm.V.id.V, i1* %AXI_video_strm.V.dest.V, i64* %tmp.data.V, i8* %tmp.keep.V, i8* %tmp.strb.V, i1* %tmp.user.V, i1* %tmp.last.V, i1* %tmp.id.V, i1* %tmp.dest.V), !dbg !1950
  %10 = call i32 (...)* @_ssdm_op_SpecRegionEnd([13 x i8]* @.str31, i32 %tmp.8), !dbg !1951 ; <i32> [#uses=0]
  call void @llvm.dbg.value(metadata !{i12 %t.V.2}, i64 0, metadata !1777), !dbg !1952
  %j.V = add i12 %t.V.2, 1, !dbg !1953            ; <i12> [#uses=1]
  call void @llvm.dbg.value(metadata !{i12 %j.V}, i64 0, metadata !1955), !dbg !1953
  br label %bb14, !dbg !1845

bb14:                                             ; preds = %bb3, %bb2
  %t.V.2 = phi i12 [ 0, %bb2 ], [ %j.V, %bb3 ]    ; <i12> [#uses=3]
  %axi.user.V = phi i1 [ %sof.2, %bb2 ], [ false, %bb3 ] ; <i1> [#uses=2]
  call void @llvm.dbg.value(metadata !{i12 %t.V.2}, i64 0, metadata !1955)
  call void @llvm.dbg.value(metadata !{i1 %axi.user.V}, i64 0, metadata !1957)
  %exitcond1 = icmp eq i12 %t.V.2, %img.cols.V.read, !dbg !1958 ; <i1> [#uses=1]
  br i1 %exitcond1, label %bb15, label %bb3, !dbg !1845

bb15:                                             ; preds = %bb14
  %axi.user.V.lcssa = phi i1 [ %axi.user.V, %bb14 ] ; <i1> [#uses=1]
  %11 = call i32 (...)* @_ssdm_op_SpecRegionEnd([13 x i8]* @.str30, i32 %tmp), !dbg !1959 ; <i32> [#uses=0]
  call void @llvm.dbg.value(metadata !{i12 %t.V}, i64 0, metadata !1777), !dbg !1960
  %i.V = add i12 %t.V, 1, !dbg !1961              ; <i12> [#uses=1]
  call void @llvm.dbg.value(metadata !{i12 %i.V}, i64 0, metadata !1963), !dbg !1961
  br label %bb17, !dbg !1843

bb17:                                             ; preds = %bb15, %entry
  %t.V = phi i12 [ 0, %entry ], [ %i.V, %bb15 ]   ; <i12> [#uses=2]
  %sof.2 = phi i1 [ true, %entry ], [ %axi.user.V.lcssa, %bb15 ] ; <i1> [#uses=1]
  call void @llvm.dbg.value(metadata !{i12 %t.V}, i64 0, metadata !1963)
  call void @llvm.dbg.value(metadata !{i1 %sof.2}, i64 0, metadata !1957)
  %exitcond2 = icmp eq i12 %t.V, %img.rows.V.read, !dbg !1965 ; <i1> [#uses=1]
  br i1 %exitcond2, label %return, label %bb2, !dbg !1843

return:                                           ; preds = %bb17
  ret void
}

define internal fastcc %"hls::Mat<1080, 1920, 16>::init.1_ret" @"hls::Mat<1080, 1920, 16>::init.1"(i1 %.read, i1 %.read1, i32 %_rows, i32 %_cols) {
entry:
  call void (...)* @_ssdm_op_SpecIFCore(i32 %_cols, [1 x i8]* @.str20, [10 x i8]* @.str35, [1 x i8]* @.str20, [1 x i8]* @.str20, [1 x i8]* @.str20, [24 x i8]* @.str36)
  call void (...)* @_ssdm_op_SpecIFCore(i32 %_rows, [1 x i8]* @.str20, [10 x i8]* @.str35, [1 x i8]* @.str20, [1 x i8]* @.str20, [1 x i8]* @.str20, [24 x i8]* @.str36)
  call void @llvm.dbg.value(metadata !{i1 %.read}, i64 0, metadata !1966)
  call void @llvm.dbg.value(metadata !{i1 %.read1}, i64 0, metadata !1968)
  call void @llvm.dbg.value(metadata !{i32 %_rows}, i64 0, metadata !1969)
  call void @llvm.dbg.value(metadata !{i32 %_cols}, i64 0, metadata !1970)
  %_rows.cast = trunc i32 %_rows to i13, !dbg !1971 ; <i13> [#uses=2]
  %tmp = icmp slt i13 %_rows.cast, 1, !dbg !1971  ; <i1> [#uses=1]
  %tmp.1 = icmp sgt i13 %_rows.cast, 1080, !dbg !1971 ; <i1> [#uses=1]
  %_cols.cast = trunc i32 %_cols to i13, !dbg !1971 ; <i13> [#uses=2]
  %tmp.2 = icmp slt i13 %_cols.cast, 1, !dbg !1971 ; <i1> [#uses=1]
  %tmp.3 = icmp sgt i13 %_cols.cast, 1920, !dbg !1971 ; <i1> [#uses=1]
  %tmp2 = or i1 %tmp, %tmp.1, !dbg !1971          ; <i1> [#uses=1]
  %tmp3 = or i1 %tmp.2, %tmp.3, !dbg !1971        ; <i1> [#uses=1]
  %or.cond2 = or i1 %tmp3, %tmp2, !dbg !1971      ; <i1> [#uses=1]
  br i1 %or.cond2, label %bb3, label %bb4, !dbg !1971

bb3:                                              ; preds = %entry
  call void @_ssdm_AssertFail(i8* getelementptr inbounds ([65 x i8]* @.str15, i64 0, i64 0), i8* getelementptr inbounds ([90 x i8]* @.str16, i64 0, i64 0), i32 488, i8* getelementptr inbounds ([97 x i8]* @"init(int,int)__PRETTY_FUNCTION__", i64 0, i64 0)) nounwind
  unreachable, !dbg !1971

bb4:                                              ; preds = %entry
  call void @llvm.dbg.value(metadata !{i32 %_rows}, i64 0, metadata !1974)
  %"Mat<1080,1920,16>.rows.V.write.assign" = trunc i32 %_rows to i12, !dbg !1976 ; <i12> [#uses=1]
  call void @llvm.dbg.value(metadata !{i32 %_cols}, i64 0, metadata !1974)
  %"Mat<1080,1920,16>.cols.V.write.assign" = trunc i32 %_cols to i12, !dbg !1978 ; <i12> [#uses=1]
  call void @llvm.dbg.value(metadata !{i12 %"Mat<1080,1920,16>.rows.V.write.assign"}, i64 0, metadata !1980)
  call void @llvm.dbg.value(metadata !{i12 %"Mat<1080,1920,16>.cols.V.write.assign"}, i64 0, metadata !1981)
  %mrv = insertvalue %"hls::Mat<1080, 1920, 16>::init.1_ret" undef, i12 %"Mat<1080,1920,16>.rows.V.write.assign", 0, !dbg !1979 ; <%"hls::Mat<1080, 1920, 16>::init.1_ret"> [#uses=1]
  %mrv.1 = insertvalue %"hls::Mat<1080, 1920, 16>::init.1_ret" %mrv, i12 %"Mat<1080,1920,16>.cols.V.write.assign", 1, !dbg !1979 ; <%"hls::Mat<1080, 1920, 16>::init.1_ret"> [#uses=1]
  ret %"hls::Mat<1080, 1920, 16>::init.1_ret" %mrv.1, !dbg !1979
}

define internal fastcc %"hls::Mat<1080, 1920, 16>::init_ret" @"hls::Mat<1080, 1920, 16>::init"(i1 %"Mat<1080,1920,16>.rows.V.read", i1 %.read1, i1 %"Mat<1080,1920,16>.cols.V.read", i1 %.read3, i32 %_rows, i32 %_cols) {
entry:
  call void (...)* @_ssdm_op_SpecIFCore(i32 %_cols, [1 x i8]* @.str20, [10 x i8]* @.str35, [1 x i8]* @.str20, [1 x i8]* @.str20, [1 x i8]* @.str20, [24 x i8]* @.str36)
  call void (...)* @_ssdm_op_SpecIFCore(i32 %_rows, [1 x i8]* @.str20, [10 x i8]* @.str35, [1 x i8]* @.str20, [1 x i8]* @.str20, [1 x i8]* @.str20, [24 x i8]* @.str36)
  call void @llvm.dbg.value(metadata !{i1 %"Mat<1080,1920,16>.rows.V.read"}, i64 0, metadata !1966)
  call void @llvm.dbg.value(metadata !{i1 %"Mat<1080,1920,16>.cols.V.read"}, i64 0, metadata !1968)
  call void @llvm.dbg.value(metadata !{i32 %_rows}, i64 0, metadata !1969)
  call void @llvm.dbg.value(metadata !{i32 %_cols}, i64 0, metadata !1970)
  %_rows.cast = trunc i32 %_rows to i13, !dbg !1971 ; <i13> [#uses=2]
  %tmp = icmp slt i13 %_rows.cast, 1, !dbg !1971  ; <i1> [#uses=1]
  %tmp.1 = icmp sgt i13 %_rows.cast, 1080, !dbg !1971 ; <i1> [#uses=1]
  %_cols.cast = trunc i32 %_cols to i13, !dbg !1971 ; <i13> [#uses=2]
  %tmp.2 = icmp slt i13 %_cols.cast, 1, !dbg !1971 ; <i1> [#uses=1]
  %tmp.3 = icmp sgt i13 %_cols.cast, 1920, !dbg !1971 ; <i1> [#uses=1]
  %tmp4 = or i1 %tmp, %tmp.1, !dbg !1971          ; <i1> [#uses=1]
  %tmp5 = or i1 %tmp.2, %tmp.3, !dbg !1971        ; <i1> [#uses=1]
  %or.cond2 = or i1 %tmp5, %tmp4, !dbg !1971      ; <i1> [#uses=1]
  br i1 %or.cond2, label %bb3, label %bb4, !dbg !1971

bb3:                                              ; preds = %entry
  call void @_ssdm_AssertFail(i8* getelementptr inbounds ([65 x i8]* @.str15, i64 0, i64 0), i8* getelementptr inbounds ([90 x i8]* @.str16, i64 0, i64 0), i32 488, i8* getelementptr inbounds ([97 x i8]* @"init(int,int)__PRETTY_FUNCTION__", i64 0, i64 0)) nounwind
  unreachable, !dbg !1971

bb4:                                              ; preds = %entry
  call void @llvm.dbg.value(metadata !{i32 %_rows}, i64 0, metadata !1974)
  %"Mat<1080,1920,16>.rows.V.write.assign" = trunc i32 %_rows to i12, !dbg !1976 ; <i12> [#uses=2]
  call void @llvm.dbg.value(metadata !{i32 %_cols}, i64 0, metadata !1974)
  %"Mat<1080,1920,16>.cols.V.write.assign" = trunc i32 %_cols to i12, !dbg !1978 ; <i12> [#uses=2]
  call void @llvm.dbg.value(metadata !{i12 %"Mat<1080,1920,16>.rows.V.write.assign"}, i64 0, metadata !1980)
  call void @llvm.dbg.value(metadata !{i12 %"Mat<1080,1920,16>.cols.V.write.assign"}, i64 0, metadata !1981)
  %mrv = insertvalue %"hls::Mat<1080, 1920, 16>::init_ret" undef, i12 %"Mat<1080,1920,16>.rows.V.write.assign", 0, !dbg !1979 ; <%"hls::Mat<1080, 1920, 16>::init_ret"> [#uses=1]
  %mrv.1 = insertvalue %"hls::Mat<1080, 1920, 16>::init_ret" %mrv, i12 %"Mat<1080,1920,16>.rows.V.write.assign", 1, !dbg !1979 ; <%"hls::Mat<1080, 1920, 16>::init_ret"> [#uses=1]
  %mrv.2 = insertvalue %"hls::Mat<1080, 1920, 16>::init_ret" %mrv.1, i12 %"Mat<1080,1920,16>.cols.V.write.assign", 2, !dbg !1979 ; <%"hls::Mat<1080, 1920, 16>::init_ret"> [#uses=1]
  %mrv.3 = insertvalue %"hls::Mat<1080, 1920, 16>::init_ret" %mrv.2, i12 %"Mat<1080,1920,16>.cols.V.write.assign", 3, !dbg !1979 ; <%"hls::Mat<1080, 1920, 16>::init_ret"> [#uses=1]
  ret %"hls::Mat<1080, 1920, 16>::init_ret" %mrv.3, !dbg !1979
}

!llvm.dbg.gv = !{!0}

!0 = metadata !{i32 458804, i32 0, metadata !1, metadata !"k_val", metadata !"k_val", metadata !"", metadata !3, i32 47, metadata !464, i1 true, i1 true, null} ; [ DW_TAG_variable ]
!1 = metadata !{i32 458798, i32 0, metadata !2, metadata !"Sobel", metadata !"Sobel", metadata !"_Z5SobelRN3hls3MatILi1080ELi1920ELi16EEES2_ii", metadata !3, i32 44, metadata !4, i1 false, i1 true, i32 0, i32 0, null, i1 false} ; [ DW_TAG_subprogram ]
!2 = metadata !{i32 458769, i32 0, i32 4, metadata !"top.pragma.2.cpp", metadata !"/nfs/TUEIEDAprojects/SystemDesign/work/zynq/umair-razzaq/xapp1167/sw/erode/prj/solution1/.autopilot/db", metadata !"4.2.1 (Based on Apple Inc. build 5658) (LLVM build 2.7)", i1 true, i1 false, metadata !"", i32 0} ; [ DW_TAG_compile_unit ]
!3 = metadata !{i32 458769, i32 0, i32 4, metadata !"top.cpp", metadata !"/nfs/TUEIEDAprojects/SystemDesign/work/zynq/umair-razzaq/xapp1167/sw/erode/", metadata !"4.2.1 (Based on Apple Inc. build 5658) (LLVM build 2.7)", i1 false, i1 false, metadata !"", i32 0} ; [ DW_TAG_compile_unit ]
!4 = metadata !{i32 458773, metadata !2, metadata !"", metadata !2, i32 0, i64 0, i64 0, i64 0, i32 0, null, metadata !5, i32 0, null} ; [ DW_TAG_subroutine_type ]
!5 = metadata !{null, metadata !6, metadata !6, metadata !59, metadata !59}
!6 = metadata !{i32 458768, metadata !2, metadata !"RGB_IMAGE", metadata !2, i32 0, i64 64, i64 64, i64 0, i32 0, metadata !7} ; [ DW_TAG_reference_type ]
!7 = metadata !{i32 458774, metadata !2, metadata !"RGB_IMAGE", metadata !8, i32 59, i64 0, i64 0, i64 0, i32 0, metadata !9} ; [ DW_TAG_typedef ]
!8 = metadata !{i32 458769, i32 0, i32 4, metadata !"top.h", metadata !"/nfs/TUEIEDAprojects/SystemDesign/work/zynq/umair-razzaq/xapp1167/sw/erode/", metadata !"4.2.1 (Based on Apple Inc. build 5658) (LLVM build 2.7)", i1 false, i1 false, metadata !"", i32 0} ; [ DW_TAG_compile_unit ]
!9 = metadata !{i32 458771, metadata !10, metadata !"Mat<1080,1920,16>", metadata !12, i32 445, i64 64, i64 16, i64 0, i32 0, null, metadata !13, i32 0, null} ; [ DW_TAG_structure_type ]
!10 = metadata !{i32 458809, metadata !2, metadata !"hls", metadata !11, i32 23} ; [ DW_TAG_namespace ]
!11 = metadata !{i32 458769, i32 0, i32 4, metadata !"hls_stream.h", metadata !"/ise_local2/umair_temp/Vivado_HLS/2013.1/common/technology/autopilot", metadata !"4.2.1 (Based on Apple Inc. build 5658) (LLVM build 2.7)", i1 false, i1 false, metadata !"", i32 0} ; [ DW_TAG_compile_unit ]
!12 = metadata !{i32 458769, i32 0, i32 4, metadata !"hls_video_core.h", metadata !"/ise_local2/umair_temp/Vivado_HLS/2013.1/common/technology/autopilot/hls", metadata !"4.2.1 (Based on Apple Inc. build 5658) (LLVM build 2.7)", i1 false, i1 false, metadata !"", i32 0} ; [ DW_TAG_compile_unit ]
!13 = metadata !{metadata !14, metadata !313, metadata !314, metadata !362, metadata !366, metadata !369, metadata !416, metadata !417, metadata !421, metadata !444, metadata !448, metadata !451, metadata !452, metadata !453, metadata !456, metadata !462, metadata !463}
!14 = metadata !{i32 458765, metadata !9, metadata !"rows", metadata !12, i32 465, i64 16, i64 16, i64 0, i32 0, metadata !15} ; [ DW_TAG_member ]
!15 = metadata !{i32 458771, metadata !2, metadata !"ap_uint<12>", metadata !16, i32 134, i64 16, i64 16, i64 0, i32 0, null, metadata !17, i32 0, null} ; [ DW_TAG_structure_type ]
!16 = metadata !{i32 458769, i32 0, i32 4, metadata !"ap_int.h", metadata !"/ise_local2/umair_temp/Vivado_HLS/2013.1/common/technology/autopilot", metadata !"4.2.1 (Based on Apple Inc. build 5658) (LLVM build 2.7)", i1 false, i1 false, metadata !"", i32 0} ; [ DW_TAG_compile_unit ]
!17 = metadata !{metadata !18, metadata !245, metadata !249, metadata !252, metadata !255, metadata !258, metadata !261, metadata !264, metadata !267, metadata !270, metadata !273, metadata !276, metadata !279, metadata !282, metadata !285, metadata !288, metadata !291, metadata !294, metadata !301, metadata !306, metadata !310}
!18 = metadata !{i32 458780, metadata !2, metadata !"", null, i32 0, i64 0, i64 0, i64 0, i32 0, metadata !19} ; [ DW_TAG_inheritance ]
!19 = metadata !{i32 458771, metadata !2, metadata !"ap_int_base<12,false,true>", metadata !20, i32 599, i64 16, i64 16, i64 0, i32 0, null, metadata !21, i32 0, null} ; [ DW_TAG_structure_type ]
!20 = metadata !{i32 458769, i32 0, i32 4, metadata !"ap_int_syn.h", metadata !"/ise_local2/umair_temp/Vivado_HLS/2013.1/common/technology/autopilot", metadata !"4.2.1 (Based on Apple Inc. build 5658) (LLVM build 2.7)", i1 false, i1 false, metadata !"", i32 0} ; [ DW_TAG_compile_unit ]
!21 = metadata !{metadata !22, metadata !32, metadata !36, metadata !40, metadata !44, metadata !48, metadata !52, metadata !56, metadata !60, metadata !64, metadata !68, metadata !72, metadata !76, metadata !80, metadata !84, metadata !88, metadata !94, metadata !97, metadata !102, metadata !107, metadata !112, metadata !113, metadata !117, metadata !120, metadata !123, metadata !126, metadata !129, metadata !132, metadata !138, metadata !141, metadata !144, metadata !147, metadata !150, metadata !153, metadata !157, metadata !158, metadata !161, metadata !162, metadata !166, metadata !169, metadata !170, metadata !171, metadata !172, metadata !173, metadata !174, metadata !177, metadata !178, metadata !181, metadata !182, metadata !183, metadata !184, metadata !185, metadata !186, metadata !189, metadata !190, metadata !191, metadata !194, metadata !195, metadata !198, metadata !199, metadata !203, metadata !204, metadata !207, metadata !208, metadata !212, metadata !213, metadata !214, metadata !215, metadata !218, metadata !219, metadata !220, metadata !221, metadata !222, metadata !223, metadata !224, metadata !225, metadata !226, metadata !227, metadata !228, metadata !229, metadata !239, metadata !242}
!22 = metadata !{i32 458780, metadata !2, metadata !"", null, i32 0, i64 0, i64 0, i64 0, i32 0, metadata !23} ; [ DW_TAG_inheritance ]
!23 = metadata !{i32 458771, metadata !2, metadata !"ssdm_int<12,false>", metadata !24, i32 14, i64 16, i64 16, i64 0, i32 0, null, metadata !25, i32 0, null} ; [ DW_TAG_structure_type ]
!24 = metadata !{i32 458769, i32 0, i32 4, metadata !"autopilot_dt.def", metadata !"/ise_local2/umair_temp/Vivado_HLS/2013.1/common/technology/autopilot/etc", metadata !"4.2.1 (Based on Apple Inc. build 5658) (LLVM build 2.7)", i1 false, i1 false, metadata !"", i32 0} ; [ DW_TAG_compile_unit ]
!25 = metadata !{metadata !26, metadata !28}
!26 = metadata !{i32 458765, metadata !23, metadata !"V", metadata !24, i32 14, i64 16, i64 16, i64 0, i32 0, metadata !27} ; [ DW_TAG_member ]
!27 = metadata !{i32 458788, metadata !2, metadata !"", metadata !2, i32 0, i64 16, i64 16, i64 0, i32 0, i32 7} ; [ DW_TAG_base_type ]
!28 = metadata !{i32 458798, i32 0, metadata !23, metadata !"ssdm_int", metadata !"ssdm_int", metadata !"", metadata !24, i32 14, metadata !29, i1 false, i1 false, i32 0, i32 0, null, i1 false} ; [ DW_TAG_subprogram ]
!29 = metadata !{i32 458773, metadata !2, metadata !"", metadata !2, i32 0, i64 0, i64 0, i64 0, i32 0, null, metadata !30, i32 0, null} ; [ DW_TAG_subroutine_type ]
!30 = metadata !{null, metadata !31}
!31 = metadata !{i32 458767, metadata !2, metadata !"", metadata !2, i32 0, i64 64, i64 64, i64 0, i32 64, metadata !23} ; [ DW_TAG_pointer_type ]
!32 = metadata !{i32 458798, i32 0, metadata !19, metadata !"ap_int_base", metadata !"ap_int_base", metadata !"", metadata !20, i32 1331, metadata !33, i1 false, i1 false, i32 0, i32 0, null, i1 false} ; [ DW_TAG_subprogram ]
!33 = metadata !{i32 458773, metadata !2, metadata !"", metadata !2, i32 0, i64 0, i64 0, i64 0, i32 0, null, metadata !34, i32 0, null} ; [ DW_TAG_subroutine_type ]
!34 = metadata !{null, metadata !35}
!35 = metadata !{i32 458767, metadata !2, metadata !"", metadata !2, i32 0, i64 64, i64 64, i64 0, i32 64, metadata !19} ; [ DW_TAG_pointer_type ]
!36 = metadata !{i32 458798, i32 0, metadata !19, metadata !"ap_int_base", metadata !"ap_int_base", metadata !"", metadata !20, i32 1353, metadata !37, i1 false, i1 false, i32 0, i32 0, null, i1 false} ; [ DW_TAG_subprogram ]
!37 = metadata !{i32 458773, metadata !2, metadata !"", metadata !2, i32 0, i64 0, i64 0, i64 0, i32 0, null, metadata !38, i32 0, null} ; [ DW_TAG_subroutine_type ]
!38 = metadata !{null, metadata !35, metadata !39}
!39 = metadata !{i32 458788, metadata !2, metadata !"bool", metadata !2, i32 0, i64 8, i64 8, i64 0, i32 0, i32 2} ; [ DW_TAG_base_type ]
!40 = metadata !{i32 458798, i32 0, metadata !19, metadata !"ap_int_base", metadata !"ap_int_base", metadata !"", metadata !20, i32 1354, metadata !41, i1 false, i1 false, i32 0, i32 0, null, i1 false} ; [ DW_TAG_subprogram ]
!41 = metadata !{i32 458773, metadata !2, metadata !"", metadata !2, i32 0, i64 0, i64 0, i64 0, i32 0, null, metadata !42, i32 0, null} ; [ DW_TAG_subroutine_type ]
!42 = metadata !{null, metadata !35, metadata !43}
!43 = metadata !{i32 458788, metadata !2, metadata !"signed char", metadata !2, i32 0, i64 8, i64 8, i64 0, i32 0, i32 6} ; [ DW_TAG_base_type ]
!44 = metadata !{i32 458798, i32 0, metadata !19, metadata !"ap_int_base", metadata !"ap_int_base", metadata !"", metadata !20, i32 1355, metadata !45, i1 false, i1 false, i32 0, i32 0, null, i1 false} ; [ DW_TAG_subprogram ]
!45 = metadata !{i32 458773, metadata !2, metadata !"", metadata !2, i32 0, i64 0, i64 0, i64 0, i32 0, null, metadata !46, i32 0, null} ; [ DW_TAG_subroutine_type ]
!46 = metadata !{null, metadata !35, metadata !47}
!47 = metadata !{i32 458788, metadata !2, metadata !"unsigned char", metadata !2, i32 0, i64 8, i64 8, i64 0, i32 0, i32 8} ; [ DW_TAG_base_type ]
!48 = metadata !{i32 458798, i32 0, metadata !19, metadata !"ap_int_base", metadata !"ap_int_base", metadata !"", metadata !20, i32 1356, metadata !49, i1 false, i1 false, i32 0, i32 0, null, i1 false} ; [ DW_TAG_subprogram ]
!49 = metadata !{i32 458773, metadata !2, metadata !"", metadata !2, i32 0, i64 0, i64 0, i64 0, i32 0, null, metadata !50, i32 0, null} ; [ DW_TAG_subroutine_type ]
!50 = metadata !{null, metadata !35, metadata !51}
!51 = metadata !{i32 458788, metadata !2, metadata !"short int", metadata !2, i32 0, i64 16, i64 16, i64 0, i32 0, i32 5} ; [ DW_TAG_base_type ]
!52 = metadata !{i32 458798, i32 0, metadata !19, metadata !"ap_int_base", metadata !"ap_int_base", metadata !"", metadata !20, i32 1357, metadata !53, i1 false, i1 false, i32 0, i32 0, null, i1 false} ; [ DW_TAG_subprogram ]
!53 = metadata !{i32 458773, metadata !2, metadata !"", metadata !2, i32 0, i64 0, i64 0, i64 0, i32 0, null, metadata !54, i32 0, null} ; [ DW_TAG_subroutine_type ]
!54 = metadata !{null, metadata !35, metadata !55}
!55 = metadata !{i32 458788, metadata !2, metadata !"short unsigned int", metadata !2, i32 0, i64 16, i64 16, i64 0, i32 0, i32 7} ; [ DW_TAG_base_type ]
!56 = metadata !{i32 458798, i32 0, metadata !19, metadata !"ap_int_base", metadata !"ap_int_base", metadata !"", metadata !20, i32 1358, metadata !57, i1 false, i1 false, i32 0, i32 0, null, i1 false} ; [ DW_TAG_subprogram ]
!57 = metadata !{i32 458773, metadata !2, metadata !"", metadata !2, i32 0, i64 0, i64 0, i64 0, i32 0, null, metadata !58, i32 0, null} ; [ DW_TAG_subroutine_type ]
!58 = metadata !{null, metadata !35, metadata !59}
!59 = metadata !{i32 458788, metadata !2, metadata !"int", metadata !2, i32 0, i64 32, i64 32, i64 0, i32 0, i32 5} ; [ DW_TAG_base_type ]
!60 = metadata !{i32 458798, i32 0, metadata !19, metadata !"ap_int_base", metadata !"ap_int_base", metadata !"", metadata !20, i32 1359, metadata !61, i1 false, i1 false, i32 0, i32 0, null, i1 false} ; [ DW_TAG_subprogram ]
!61 = metadata !{i32 458773, metadata !2, metadata !"", metadata !2, i32 0, i64 0, i64 0, i64 0, i32 0, null, metadata !62, i32 0, null} ; [ DW_TAG_subroutine_type ]
!62 = metadata !{null, metadata !35, metadata !63}
!63 = metadata !{i32 458788, metadata !2, metadata !"unsigned int", metadata !2, i32 0, i64 32, i64 32, i64 0, i32 0, i32 7} ; [ DW_TAG_base_type ]
!64 = metadata !{i32 458798, i32 0, metadata !19, metadata !"ap_int_base", metadata !"ap_int_base", metadata !"", metadata !20, i32 1360, metadata !65, i1 false, i1 false, i32 0, i32 0, null, i1 false} ; [ DW_TAG_subprogram ]
!65 = metadata !{i32 458773, metadata !2, metadata !"", metadata !2, i32 0, i64 0, i64 0, i64 0, i32 0, null, metadata !66, i32 0, null} ; [ DW_TAG_subroutine_type ]
!66 = metadata !{null, metadata !35, metadata !67}
!67 = metadata !{i32 458788, metadata !2, metadata !"long int", metadata !2, i32 0, i64 64, i64 64, i64 0, i32 0, i32 5} ; [ DW_TAG_base_type ]
!68 = metadata !{i32 458798, i32 0, metadata !19, metadata !"ap_int_base", metadata !"ap_int_base", metadata !"", metadata !20, i32 1361, metadata !69, i1 false, i1 false, i32 0, i32 0, null, i1 false} ; [ DW_TAG_subprogram ]
!69 = metadata !{i32 458773, metadata !2, metadata !"", metadata !2, i32 0, i64 0, i64 0, i64 0, i32 0, null, metadata !70, i32 0, null} ; [ DW_TAG_subroutine_type ]
!70 = metadata !{null, metadata !35, metadata !71}
!71 = metadata !{i32 458788, metadata !2, metadata !"long unsigned int", metadata !2, i32 0, i64 64, i64 64, i64 0, i32 0, i32 7} ; [ DW_TAG_base_type ]
!72 = metadata !{i32 458798, i32 0, metadata !19, metadata !"ap_int_base", metadata !"ap_int_base", metadata !"", metadata !20, i32 1362, metadata !73, i1 false, i1 false, i32 0, i32 0, null, i1 false} ; [ DW_TAG_subprogram ]
!73 = metadata !{i32 458773, metadata !2, metadata !"", metadata !2, i32 0, i64 0, i64 0, i64 0, i32 0, null, metadata !74, i32 0, null} ; [ DW_TAG_subroutine_type ]
!74 = metadata !{null, metadata !35, metadata !75}
!75 = metadata !{i32 458788, metadata !2, metadata !"long long int", metadata !2, i32 0, i64 64, i64 64, i64 0, i32 0, i32 5} ; [ DW_TAG_base_type ]
!76 = metadata !{i32 458798, i32 0, metadata !19, metadata !"ap_int_base", metadata !"ap_int_base", metadata !"", metadata !20, i32 1363, metadata !77, i1 false, i1 false, i32 0, i32 0, null, i1 false} ; [ DW_TAG_subprogram ]
!77 = metadata !{i32 458773, metadata !2, metadata !"", metadata !2, i32 0, i64 0, i64 0, i64 0, i32 0, null, metadata !78, i32 0, null} ; [ DW_TAG_subroutine_type ]
!78 = metadata !{null, metadata !35, metadata !79}
!79 = metadata !{i32 458788, metadata !2, metadata !"long long unsigned int", metadata !2, i32 0, i64 64, i64 64, i64 0, i32 0, i32 7} ; [ DW_TAG_base_type ]
!80 = metadata !{i32 458798, i32 0, metadata !19, metadata !"ap_int_base", metadata !"ap_int_base", metadata !"", metadata !20, i32 1364, metadata !81, i1 false, i1 false, i32 0, i32 0, null, i1 false} ; [ DW_TAG_subprogram ]
!81 = metadata !{i32 458773, metadata !2, metadata !"", metadata !2, i32 0, i64 0, i64 0, i64 0, i32 0, null, metadata !82, i32 0, null} ; [ DW_TAG_subroutine_type ]
!82 = metadata !{null, metadata !35, metadata !83}
!83 = metadata !{i32 458788, metadata !2, metadata !"float", metadata !2, i32 0, i64 32, i64 32, i64 0, i32 0, i32 4} ; [ DW_TAG_base_type ]
!84 = metadata !{i32 458798, i32 0, metadata !19, metadata !"ap_int_base", metadata !"ap_int_base", metadata !"", metadata !20, i32 1365, metadata !85, i1 false, i1 false, i32 0, i32 0, null, i1 false} ; [ DW_TAG_subprogram ]
!85 = metadata !{i32 458773, metadata !2, metadata !"", metadata !2, i32 0, i64 0, i64 0, i64 0, i32 0, null, metadata !86, i32 0, null} ; [ DW_TAG_subroutine_type ]
!86 = metadata !{null, metadata !35, metadata !87}
!87 = metadata !{i32 458788, metadata !2, metadata !"double", metadata !2, i32 0, i64 64, i64 64, i64 0, i32 0, i32 4} ; [ DW_TAG_base_type ]
!88 = metadata !{i32 458798, i32 0, metadata !19, metadata !"ap_int_base", metadata !"ap_int_base", metadata !"", metadata !20, i32 1392, metadata !89, i1 false, i1 false, i32 0, i32 0, null, i1 false} ; [ DW_TAG_subprogram ]
!89 = metadata !{i32 458773, metadata !2, metadata !"", metadata !2, i32 0, i64 0, i64 0, i64 0, i32 0, null, metadata !90, i32 0, null} ; [ DW_TAG_subroutine_type ]
!90 = metadata !{null, metadata !35, metadata !91}
!91 = metadata !{i32 458767, metadata !2, metadata !"", metadata !2, i32 0, i64 64, i64 64, i64 0, i32 0, metadata !92} ; [ DW_TAG_pointer_type ]
!92 = metadata !{i32 458790, metadata !2, metadata !"", metadata !2, i32 0, i64 8, i64 8, i64 0, i32 0, metadata !93} ; [ DW_TAG_const_type ]
!93 = metadata !{i32 458788, metadata !2, metadata !"char", metadata !2, i32 0, i64 8, i64 8, i64 0, i32 0, i32 6} ; [ DW_TAG_base_type ]
!94 = metadata !{i32 458798, i32 0, metadata !19, metadata !"ap_int_base", metadata !"ap_int_base", metadata !"", metadata !20, i32 1398, metadata !95, i1 false, i1 false, i32 0, i32 0, null, i1 false} ; [ DW_TAG_subprogram ]
!95 = metadata !{i32 458773, metadata !2, metadata !"", metadata !2, i32 0, i64 0, i64 0, i64 0, i32 0, null, metadata !96, i32 0, null} ; [ DW_TAG_subroutine_type ]
!96 = metadata !{null, metadata !35, metadata !91, metadata !43}
!97 = metadata !{i32 458798, i32 0, metadata !19, metadata !"read", metadata !"read", metadata !"_ZNV11ap_int_baseILi12ELb0ELb1EE4readEv", metadata !20, i32 1418, metadata !98, i1 false, i1 false, i32 0, i32 0, null, i1 false} ; [ DW_TAG_subprogram ]
!98 = metadata !{i32 458773, metadata !2, metadata !"", metadata !2, i32 0, i64 0, i64 0, i64 0, i32 0, null, metadata !99, i32 0, null} ; [ DW_TAG_subroutine_type ]
!99 = metadata !{metadata !19, metadata !100}
!100 = metadata !{i32 458767, metadata !2, metadata !"", metadata !2, i32 0, i64 64, i64 64, i64 0, i32 64, metadata !101} ; [ DW_TAG_pointer_type ]
!101 = metadata !{i32 458805, metadata !2, metadata !"", metadata !2, i32 0, i64 16, i64 16, i64 0, i32 0, metadata !19} ; [ DW_TAG_volatile_type ]
!102 = metadata !{i32 458798, i32 0, metadata !19, metadata !"write", metadata !"write", metadata !"_ZNV11ap_int_baseILi12ELb0ELb1EE5writeERKS0_", metadata !20, i32 1424, metadata !103, i1 false, i1 false, i32 0, i32 0, null, i1 false} ; [ DW_TAG_subprogram ]
!103 = metadata !{i32 458773, metadata !2, metadata !"", metadata !2, i32 0, i64 0, i64 0, i64 0, i32 0, null, metadata !104, i32 0, null} ; [ DW_TAG_subroutine_type ]
!104 = metadata !{null, metadata !100, metadata !105}
!105 = metadata !{i32 458768, metadata !2, metadata !"", metadata !2, i32 0, i64 64, i64 64, i64 0, i32 0, metadata !106} ; [ DW_TAG_reference_type ]
!106 = metadata !{i32 458790, metadata !2, metadata !"", metadata !2, i32 0, i64 16, i64 16, i64 0, i32 0, metadata !19} ; [ DW_TAG_const_type ]
!107 = metadata !{i32 458798, i32 0, metadata !19, metadata !"operator=", metadata !"operator=", metadata !"_ZNV11ap_int_baseILi12ELb0ELb1EEaSERVKS0_", metadata !20, i32 1436, metadata !108, i1 false, i1 false, i32 0, i32 0, null, i1 false} ; [ DW_TAG_subprogram ]
!108 = metadata !{i32 458773, metadata !2, metadata !"", metadata !2, i32 0, i64 0, i64 0, i64 0, i32 0, null, metadata !109, i32 0, null} ; [ DW_TAG_subroutine_type ]
!109 = metadata !{null, metadata !100, metadata !110}
!110 = metadata !{i32 458768, metadata !2, metadata !"", metadata !2, i32 0, i64 64, i64 64, i64 0, i32 0, metadata !111} ; [ DW_TAG_reference_type ]
!111 = metadata !{i32 458790, metadata !2, metadata !"", metadata !2, i32 0, i64 16, i64 16, i64 0, i32 0, metadata !101} ; [ DW_TAG_const_type ]
!112 = metadata !{i32 458798, i32 0, metadata !19, metadata !"operator=", metadata !"operator=", metadata !"_ZNV11ap_int_baseILi12ELb0ELb1EEaSERKS0_", metadata !20, i32 1445, metadata !103, i1 false, i1 false, i32 0, i32 0, null, i1 false} ; [ DW_TAG_subprogram ]
!113 = metadata !{i32 458798, i32 0, metadata !19, metadata !"operator=", metadata !"operator=", metadata !"_ZN11ap_int_baseILi12ELb0ELb1EEaSERVKS0_", metadata !20, i32 1468, metadata !114, i1 false, i1 false, i32 0, i32 0, null, i1 false} ; [ DW_TAG_subprogram ]
!114 = metadata !{i32 458773, metadata !2, metadata !"", metadata !2, i32 0, i64 0, i64 0, i64 0, i32 0, null, metadata !115, i32 0, null} ; [ DW_TAG_subroutine_type ]
!115 = metadata !{metadata !116, metadata !35, metadata !110}
!116 = metadata !{i32 458768, metadata !2, metadata !"ap_int_base<12,false,true>", metadata !2, i32 0, i64 64, i64 64, i64 0, i32 0, metadata !19} ; [ DW_TAG_reference_type ]
!117 = metadata !{i32 458798, i32 0, metadata !19, metadata !"operator=", metadata !"operator=", metadata !"_ZN11ap_int_baseILi12ELb0ELb1EEaSERKS0_", metadata !20, i32 1473, metadata !118, i1 false, i1 false, i32 0, i32 0, null, i1 false} ; [ DW_TAG_subprogram ]
!118 = metadata !{i32 458773, metadata !2, metadata !"", metadata !2, i32 0, i64 0, i64 0, i64 0, i32 0, null, metadata !119, i32 0, null} ; [ DW_TAG_subroutine_type ]
!119 = metadata !{metadata !116, metadata !35, metadata !105}
!120 = metadata !{i32 458798, i32 0, metadata !19, metadata !"operator=", metadata !"operator=", metadata !"_ZN11ap_int_baseILi12ELb0ELb1EEaSEPKc", metadata !20, i32 1477, metadata !121, i1 false, i1 false, i32 0, i32 0, null, i1 false} ; [ DW_TAG_subprogram ]
!121 = metadata !{i32 458773, metadata !2, metadata !"", metadata !2, i32 0, i64 0, i64 0, i64 0, i32 0, null, metadata !122, i32 0, null} ; [ DW_TAG_subroutine_type ]
!122 = metadata !{metadata !116, metadata !35, metadata !91}
!123 = metadata !{i32 458798, i32 0, metadata !19, metadata !"set", metadata !"set", metadata !"_ZN11ap_int_baseILi12ELb0ELb1EE3setEPKca", metadata !20, i32 1484, metadata !124, i1 false, i1 false, i32 0, i32 0, null, i1 false} ; [ DW_TAG_subprogram ]
!124 = metadata !{i32 458773, metadata !2, metadata !"", metadata !2, i32 0, i64 0, i64 0, i64 0, i32 0, null, metadata !125, i32 0, null} ; [ DW_TAG_subroutine_type ]
!125 = metadata !{metadata !116, metadata !35, metadata !91, metadata !43}
!126 = metadata !{i32 458798, i32 0, metadata !19, metadata !"operator=", metadata !"operator=", metadata !"_ZN11ap_int_baseILi12ELb0ELb1EEaSEy", metadata !20, i32 1492, metadata !127, i1 false, i1 false, i32 0, i32 0, null, i1 false} ; [ DW_TAG_subprogram ]
!127 = metadata !{i32 458773, metadata !2, metadata !"", metadata !2, i32 0, i64 0, i64 0, i64 0, i32 0, null, metadata !128, i32 0, null} ; [ DW_TAG_subroutine_type ]
!128 = metadata !{metadata !116, metadata !35, metadata !79}
!129 = metadata !{i32 458798, i32 0, metadata !19, metadata !"operator=", metadata !"operator=", metadata !"_ZN11ap_int_baseILi12ELb0ELb1EEaSEx", metadata !20, i32 1497, metadata !130, i1 false, i1 false, i32 0, i32 0, null, i1 false} ; [ DW_TAG_subprogram ]
!130 = metadata !{i32 458773, metadata !2, metadata !"", metadata !2, i32 0, i64 0, i64 0, i64 0, i32 0, null, metadata !131, i32 0, null} ; [ DW_TAG_subroutine_type ]
!131 = metadata !{metadata !116, metadata !35, metadata !75}
!132 = metadata !{i32 458798, i32 0, metadata !19, metadata !"operator ap_ulong", metadata !"operator ap_ulong", metadata !"_ZNK11ap_int_baseILi12ELb0ELb1EEcvyEv", metadata !20, i32 1538, metadata !133, i1 false, i1 true, i32 0, i32 0, null, i1 false} ; [ DW_TAG_subprogram ]
!133 = metadata !{i32 458773, metadata !2, metadata !"", metadata !2, i32 0, i64 0, i64 0, i64 0, i32 0, null, metadata !134, i32 0, null} ; [ DW_TAG_subroutine_type ]
!134 = metadata !{metadata !135, metadata !137}
!135 = metadata !{i32 458774, metadata !2, metadata !"ap_ulong", metadata !136, i32 332, i64 0, i64 0, i64 0, i32 0, metadata !79} ; [ DW_TAG_typedef ]
!136 = metadata !{i32 458769, i32 0, i32 4, metadata !"math.h", metadata !"/usr/include", metadata !"4.2.1 (Based on Apple Inc. build 5658) (LLVM build 2.7)", i1 false, i1 false, metadata !"", i32 0} ; [ DW_TAG_compile_unit ]
!137 = metadata !{i32 458767, metadata !2, metadata !"", metadata !2, i32 0, i64 64, i64 64, i64 0, i32 64, metadata !106} ; [ DW_TAG_pointer_type ]
!138 = metadata !{i32 458798, i32 0, metadata !19, metadata !"to_bool", metadata !"to_bool", metadata !"_ZNK11ap_int_baseILi12ELb0ELb1EE7to_boolEv", metadata !20, i32 1544, metadata !139, i1 false, i1 false, i32 0, i32 0, null, i1 false} ; [ DW_TAG_subprogram ]
!139 = metadata !{i32 458773, metadata !2, metadata !"", metadata !2, i32 0, i64 0, i64 0, i64 0, i32 0, null, metadata !140, i32 0, null} ; [ DW_TAG_subroutine_type ]
!140 = metadata !{metadata !39, metadata !137}
!141 = metadata !{i32 458798, i32 0, metadata !19, metadata !"to_int", metadata !"to_int", metadata !"_ZNK11ap_int_baseILi12ELb0ELb1EE6to_intEv", metadata !20, i32 1545, metadata !142, i1 false, i1 false, i32 0, i32 0, null, i1 false} ; [ DW_TAG_subprogram ]
!142 = metadata !{i32 458773, metadata !2, metadata !"", metadata !2, i32 0, i64 0, i64 0, i64 0, i32 0, null, metadata !143, i32 0, null} ; [ DW_TAG_subroutine_type ]
!143 = metadata !{metadata !59, metadata !137}
!144 = metadata !{i32 458798, i32 0, metadata !19, metadata !"to_uint", metadata !"to_uint", metadata !"_ZNK11ap_int_baseILi12ELb0ELb1EE7to_uintEv", metadata !20, i32 1546, metadata !145, i1 false, i1 false, i32 0, i32 0, null, i1 false} ; [ DW_TAG_subprogram ]
!145 = metadata !{i32 458773, metadata !2, metadata !"", metadata !2, i32 0, i64 0, i64 0, i64 0, i32 0, null, metadata !146, i32 0, null} ; [ DW_TAG_subroutine_type ]
!146 = metadata !{metadata !63, metadata !137}
!147 = metadata !{i32 458798, i32 0, metadata !19, metadata !"to_long", metadata !"to_long", metadata !"_ZNK11ap_int_baseILi12ELb0ELb1EE7to_longEv", metadata !20, i32 1547, metadata !148, i1 false, i1 false, i32 0, i32 0, null, i1 false} ; [ DW_TAG_subprogram ]
!148 = metadata !{i32 458773, metadata !2, metadata !"", metadata !2, i32 0, i64 0, i64 0, i64 0, i32 0, null, metadata !149, i32 0, null} ; [ DW_TAG_subroutine_type ]
!149 = metadata !{metadata !67, metadata !137}
!150 = metadata !{i32 458798, i32 0, metadata !19, metadata !"to_ulong", metadata !"to_ulong", metadata !"_ZNK11ap_int_baseILi12ELb0ELb1EE8to_ulongEv", metadata !20, i32 1548, metadata !151, i1 false, i1 false, i32 0, i32 0, null, i1 false} ; [ DW_TAG_subprogram ]
!151 = metadata !{i32 458773, metadata !2, metadata !"", metadata !2, i32 0, i64 0, i64 0, i64 0, i32 0, null, metadata !152, i32 0, null} ; [ DW_TAG_subroutine_type ]
!152 = metadata !{metadata !71, metadata !137}
!153 = metadata !{i32 458798, i32 0, metadata !19, metadata !"to_int64", metadata !"to_int64", metadata !"_ZNK11ap_int_baseILi12ELb0ELb1EE8to_int64Ev", metadata !20, i32 1549, metadata !154, i1 false, i1 false, i32 0, i32 0, null, i1 false} ; [ DW_TAG_subprogram ]
!154 = metadata !{i32 458773, metadata !2, metadata !"", metadata !2, i32 0, i64 0, i64 0, i64 0, i32 0, null, metadata !155, i32 0, null} ; [ DW_TAG_subroutine_type ]
!155 = metadata !{metadata !156, metadata !137}
!156 = metadata !{i32 458774, metadata !2, metadata !"ap_slong", metadata !20, i32 65, i64 0, i64 0, i64 0, i32 0, metadata !75} ; [ DW_TAG_typedef ]
!157 = metadata !{i32 458798, i32 0, metadata !19, metadata !"to_uint64", metadata !"to_uint64", metadata !"_ZNK11ap_int_baseILi12ELb0ELb1EE9to_uint64Ev", metadata !20, i32 1550, metadata !133, i1 false, i1 false, i32 0, i32 0, null, i1 false} ; [ DW_TAG_subprogram ]
!158 = metadata !{i32 458798, i32 0, metadata !19, metadata !"to_double", metadata !"to_double", metadata !"_ZNK11ap_int_baseILi12ELb0ELb1EE9to_doubleEv", metadata !20, i32 1551, metadata !159, i1 false, i1 false, i32 0, i32 0, null, i1 false} ; [ DW_TAG_subprogram ]
!159 = metadata !{i32 458773, metadata !2, metadata !"", metadata !2, i32 0, i64 0, i64 0, i64 0, i32 0, null, metadata !160, i32 0, null} ; [ DW_TAG_subroutine_type ]
!160 = metadata !{metadata !87, metadata !137}
!161 = metadata !{i32 458798, i32 0, metadata !19, metadata !"length", metadata !"length", metadata !"_ZNK11ap_int_baseILi12ELb0ELb1EE6lengthEv", metadata !20, i32 1564, metadata !142, i1 false, i1 false, i32 0, i32 0, null, i1 false} ; [ DW_TAG_subprogram ]
!162 = metadata !{i32 458798, i32 0, metadata !19, metadata !"length", metadata !"length", metadata !"_ZNVK11ap_int_baseILi12ELb0ELb1EE6lengthEv", metadata !20, i32 1565, metadata !163, i1 false, i1 false, i32 0, i32 0, null, i1 false} ; [ DW_TAG_subprogram ]
!163 = metadata !{i32 458773, metadata !2, metadata !"", metadata !2, i32 0, i64 0, i64 0, i64 0, i32 0, null, metadata !164, i32 0, null} ; [ DW_TAG_subroutine_type ]
!164 = metadata !{metadata !59, metadata !165}
!165 = metadata !{i32 458767, metadata !2, metadata !"", metadata !2, i32 0, i64 64, i64 64, i64 0, i32 64, metadata !111} ; [ DW_TAG_pointer_type ]
!166 = metadata !{i32 458798, i32 0, metadata !19, metadata !"reverse", metadata !"reverse", metadata !"_ZN11ap_int_baseILi12ELb0ELb1EE7reverseEv", metadata !20, i32 1570, metadata !167, i1 false, i1 false, i32 0, i32 0, null, i1 false} ; [ DW_TAG_subprogram ]
!167 = metadata !{i32 458773, metadata !2, metadata !"", metadata !2, i32 0, i64 0, i64 0, i64 0, i32 0, null, metadata !168, i32 0, null} ; [ DW_TAG_subroutine_type ]
!168 = metadata !{metadata !116, metadata !35}
!169 = metadata !{i32 458798, i32 0, metadata !19, metadata !"iszero", metadata !"iszero", metadata !"_ZNK11ap_int_baseILi12ELb0ELb1EE6iszeroEv", metadata !20, i32 1576, metadata !139, i1 false, i1 false, i32 0, i32 0, null, i1 false} ; [ DW_TAG_subprogram ]
!170 = metadata !{i32 458798, i32 0, metadata !19, metadata !"is_zero", metadata !"is_zero", metadata !"_ZNK11ap_int_baseILi12ELb0ELb1EE7is_zeroEv", metadata !20, i32 1581, metadata !139, i1 false, i1 false, i32 0, i32 0, null, i1 false} ; [ DW_TAG_subprogram ]
!171 = metadata !{i32 458798, i32 0, metadata !19, metadata !"sign", metadata !"sign", metadata !"_ZNK11ap_int_baseILi12ELb0ELb1EE4signEv", metadata !20, i32 1586, metadata !139, i1 false, i1 false, i32 0, i32 0, null, i1 false} ; [ DW_TAG_subprogram ]
!172 = metadata !{i32 458798, i32 0, metadata !19, metadata !"clear", metadata !"clear", metadata !"_ZN11ap_int_baseILi12ELb0ELb1EE5clearEi", metadata !20, i32 1594, metadata !57, i1 false, i1 false, i32 0, i32 0, null, i1 false} ; [ DW_TAG_subprogram ]
!173 = metadata !{i32 458798, i32 0, metadata !19, metadata !"invert", metadata !"invert", metadata !"_ZN11ap_int_baseILi12ELb0ELb1EE6invertEi", metadata !20, i32 1600, metadata !57, i1 false, i1 false, i32 0, i32 0, null, i1 false} ; [ DW_TAG_subprogram ]
!174 = metadata !{i32 458798, i32 0, metadata !19, metadata !"test", metadata !"test", metadata !"_ZNK11ap_int_baseILi12ELb0ELb1EE4testEi", metadata !20, i32 1608, metadata !175, i1 false, i1 false, i32 0, i32 0, null, i1 false} ; [ DW_TAG_subprogram ]
!175 = metadata !{i32 458773, metadata !2, metadata !"", metadata !2, i32 0, i64 0, i64 0, i64 0, i32 0, null, metadata !176, i32 0, null} ; [ DW_TAG_subroutine_type ]
!176 = metadata !{metadata !39, metadata !137, metadata !59}
!177 = metadata !{i32 458798, i32 0, metadata !19, metadata !"set", metadata !"set", metadata !"_ZN11ap_int_baseILi12ELb0ELb1EE3setEi", metadata !20, i32 1614, metadata !57, i1 false, i1 false, i32 0, i32 0, null, i1 false} ; [ DW_TAG_subprogram ]
!178 = metadata !{i32 458798, i32 0, metadata !19, metadata !"set", metadata !"set", metadata !"_ZN11ap_int_baseILi12ELb0ELb1EE3setEib", metadata !20, i32 1620, metadata !179, i1 false, i1 false, i32 0, i32 0, null, i1 false} ; [ DW_TAG_subprogram ]
!179 = metadata !{i32 458773, metadata !2, metadata !"", metadata !2, i32 0, i64 0, i64 0, i64 0, i32 0, null, metadata !180, i32 0, null} ; [ DW_TAG_subroutine_type ]
!180 = metadata !{null, metadata !35, metadata !59, metadata !39}
!181 = metadata !{i32 458798, i32 0, metadata !19, metadata !"lrotate", metadata !"lrotate", metadata !"_ZN11ap_int_baseILi12ELb0ELb1EE7lrotateEi", metadata !20, i32 1627, metadata !57, i1 false, i1 false, i32 0, i32 0, null, i1 false} ; [ DW_TAG_subprogram ]
!182 = metadata !{i32 458798, i32 0, metadata !19, metadata !"rrotate", metadata !"rrotate", metadata !"_ZN11ap_int_baseILi12ELb0ELb1EE7rrotateEi", metadata !20, i32 1636, metadata !57, i1 false, i1 false, i32 0, i32 0, null, i1 false} ; [ DW_TAG_subprogram ]
!183 = metadata !{i32 458798, i32 0, metadata !19, metadata !"set_bit", metadata !"set_bit", metadata !"_ZN11ap_int_baseILi12ELb0ELb1EE7set_bitEib", metadata !20, i32 1644, metadata !179, i1 false, i1 false, i32 0, i32 0, null, i1 false} ; [ DW_TAG_subprogram ]
!184 = metadata !{i32 458798, i32 0, metadata !19, metadata !"get_bit", metadata !"get_bit", metadata !"_ZNK11ap_int_baseILi12ELb0ELb1EE7get_bitEi", metadata !20, i32 1649, metadata !175, i1 false, i1 false, i32 0, i32 0, null, i1 false} ; [ DW_TAG_subprogram ]
!185 = metadata !{i32 458798, i32 0, metadata !19, metadata !"b_not", metadata !"b_not", metadata !"_ZN11ap_int_baseILi12ELb0ELb1EE5b_notEv", metadata !20, i32 1654, metadata !33, i1 false, i1 false, i32 0, i32 0, null, i1 false} ; [ DW_TAG_subprogram ]
!186 = metadata !{i32 458798, i32 0, metadata !19, metadata !"countLeadingZeros", metadata !"countLeadingZeros", metadata !"_ZN11ap_int_baseILi12ELb0ELb1EE17countLeadingZerosEv", metadata !20, i32 1661, metadata !187, i1 false, i1 false, i32 0, i32 0, null, i1 false} ; [ DW_TAG_subprogram ]
!187 = metadata !{i32 458773, metadata !2, metadata !"", metadata !2, i32 0, i64 0, i64 0, i64 0, i32 0, null, metadata !188, i32 0, null} ; [ DW_TAG_subroutine_type ]
!188 = metadata !{metadata !59, metadata !35}
!189 = metadata !{i32 458798, i32 0, metadata !19, metadata !"operator++", metadata !"operator++", metadata !"_ZN11ap_int_baseILi12ELb0ELb1EEppEv", metadata !20, i32 1718, metadata !167, i1 false, i1 false, i32 0, i32 0, null, i1 false} ; [ DW_TAG_subprogram ]
!190 = metadata !{i32 458798, i32 0, metadata !19, metadata !"operator--", metadata !"operator--", metadata !"_ZN11ap_int_baseILi12ELb0ELb1EEmmEv", metadata !20, i32 1722, metadata !167, i1 false, i1 false, i32 0, i32 0, null, i1 false} ; [ DW_TAG_subprogram ]
!191 = metadata !{i32 458798, i32 0, metadata !19, metadata !"operator++", metadata !"operator++", metadata !"_ZN11ap_int_baseILi12ELb0ELb1EEppEi", metadata !20, i32 1730, metadata !192, i1 false, i1 true, i32 0, i32 0, null, i1 false} ; [ DW_TAG_subprogram ]
!192 = metadata !{i32 458773, metadata !2, metadata !"", metadata !2, i32 0, i64 0, i64 0, i64 0, i32 0, null, metadata !193, i32 0, null} ; [ DW_TAG_subroutine_type ]
!193 = metadata !{metadata !106, metadata !35, metadata !59}
!194 = metadata !{i32 458798, i32 0, metadata !19, metadata !"operator--", metadata !"operator--", metadata !"_ZN11ap_int_baseILi12ELb0ELb1EEmmEi", metadata !20, i32 1735, metadata !192, i1 false, i1 false, i32 0, i32 0, null, i1 false} ; [ DW_TAG_subprogram ]
!195 = metadata !{i32 458798, i32 0, metadata !19, metadata !"operator+", metadata !"operator+", metadata !"_ZNK11ap_int_baseILi12ELb0ELb1EEpsEv", metadata !20, i32 1744, metadata !196, i1 false, i1 false, i32 0, i32 0, null, i1 false} ; [ DW_TAG_subprogram ]
!196 = metadata !{i32 458773, metadata !2, metadata !"", metadata !2, i32 0, i64 0, i64 0, i64 0, i32 0, null, metadata !197, i32 0, null} ; [ DW_TAG_subroutine_type ]
!197 = metadata !{metadata !19, metadata !137}
!198 = metadata !{i32 458798, i32 0, metadata !19, metadata !"operator!", metadata !"operator!", metadata !"_ZNK11ap_int_baseILi12ELb0ELb1EEntEv", metadata !20, i32 1750, metadata !139, i1 false, i1 false, i32 0, i32 0, null, i1 false} ; [ DW_TAG_subprogram ]
!199 = metadata !{i32 458798, i32 0, metadata !19, metadata !"range", metadata !"range", metadata !"_ZN11ap_int_baseILi12ELb0ELb1EE5rangeEii", metadata !20, i32 1877, metadata !200, i1 false, i1 false, i32 0, i32 0, null, i1 false} ; [ DW_TAG_subprogram ]
!200 = metadata !{i32 458773, metadata !2, metadata !"", metadata !2, i32 0, i64 0, i64 0, i64 0, i32 0, null, metadata !201, i32 0, null} ; [ DW_TAG_subroutine_type ]
!201 = metadata !{metadata !202, metadata !35, metadata !59, metadata !59}
!202 = metadata !{i32 458771, metadata !2, metadata !"ap_range_ref<12,false>", metadata !20, i32 872, i64 0, i64 0, i64 0, i32 4, null, null, i32 0, null} ; [ DW_TAG_structure_type ]
!203 = metadata !{i32 458798, i32 0, metadata !19, metadata !"operator()", metadata !"operator()", metadata !"_ZN11ap_int_baseILi12ELb0ELb1EEclEii", metadata !20, i32 1883, metadata !200, i1 false, i1 false, i32 0, i32 0, null, i1 false} ; [ DW_TAG_subprogram ]
!204 = metadata !{i32 458798, i32 0, metadata !19, metadata !"range", metadata !"range", metadata !"_ZNK11ap_int_baseILi12ELb0ELb1EE5rangeEii", metadata !20, i32 1889, metadata !205, i1 false, i1 false, i32 0, i32 0, null, i1 false} ; [ DW_TAG_subprogram ]
!205 = metadata !{i32 458773, metadata !2, metadata !"", metadata !2, i32 0, i64 0, i64 0, i64 0, i32 0, null, metadata !206, i32 0, null} ; [ DW_TAG_subroutine_type ]
!206 = metadata !{metadata !202, metadata !137, metadata !59, metadata !59}
!207 = metadata !{i32 458798, i32 0, metadata !19, metadata !"operator()", metadata !"operator()", metadata !"_ZNK11ap_int_baseILi12ELb0ELb1EEclEii", metadata !20, i32 1895, metadata !205, i1 false, i1 false, i32 0, i32 0, null, i1 false} ; [ DW_TAG_subprogram ]
!208 = metadata !{i32 458798, i32 0, metadata !19, metadata !"operator[]", metadata !"operator[]", metadata !"_ZN11ap_int_baseILi12ELb0ELb1EEixEi", metadata !20, i32 1914, metadata !209, i1 false, i1 false, i32 0, i32 0, null, i1 false} ; [ DW_TAG_subprogram ]
!209 = metadata !{i32 458773, metadata !2, metadata !"", metadata !2, i32 0, i64 0, i64 0, i64 0, i32 0, null, metadata !210, i32 0, null} ; [ DW_TAG_subroutine_type ]
!210 = metadata !{metadata !211, metadata !35, metadata !59}
!211 = metadata !{i32 458771, metadata !2, metadata !"ap_bit_ref<12,false>", metadata !20, i32 1116, i64 0, i64 0, i64 0, i32 4, null, null, i32 0, null} ; [ DW_TAG_structure_type ]
!212 = metadata !{i32 458798, i32 0, metadata !19, metadata !"operator[]", metadata !"operator[]", metadata !"_ZNK11ap_int_baseILi12ELb0ELb1EEixEi", metadata !20, i32 1928, metadata !175, i1 false, i1 false, i32 0, i32 0, null, i1 false} ; [ DW_TAG_subprogram ]
!213 = metadata !{i32 458798, i32 0, metadata !19, metadata !"bit", metadata !"bit", metadata !"_ZN11ap_int_baseILi12ELb0ELb1EE3bitEi", metadata !20, i32 1942, metadata !209, i1 false, i1 false, i32 0, i32 0, null, i1 false} ; [ DW_TAG_subprogram ]
!214 = metadata !{i32 458798, i32 0, metadata !19, metadata !"bit", metadata !"bit", metadata !"_ZNK11ap_int_baseILi12ELb0ELb1EE3bitEi", metadata !20, i32 1956, metadata !175, i1 false, i1 false, i32 0, i32 0, null, i1 false} ; [ DW_TAG_subprogram ]
!215 = metadata !{i32 458798, i32 0, metadata !19, metadata !"and_reduce", metadata !"and_reduce", metadata !"_ZN11ap_int_baseILi12ELb0ELb1EE10and_reduceEv", metadata !20, i32 2136, metadata !216, i1 false, i1 false, i32 0, i32 0, null, i1 false} ; [ DW_TAG_subprogram ]
!216 = metadata !{i32 458773, metadata !2, metadata !"", metadata !2, i32 0, i64 0, i64 0, i64 0, i32 0, null, metadata !217, i32 0, null} ; [ DW_TAG_subroutine_type ]
!217 = metadata !{metadata !39, metadata !35}
!218 = metadata !{i32 458798, i32 0, metadata !19, metadata !"nand_reduce", metadata !"nand_reduce", metadata !"_ZN11ap_int_baseILi12ELb0ELb1EE11nand_reduceEv", metadata !20, i32 2139, metadata !216, i1 false, i1 false, i32 0, i32 0, null, i1 false} ; [ DW_TAG_subprogram ]
!219 = metadata !{i32 458798, i32 0, metadata !19, metadata !"or_reduce", metadata !"or_reduce", metadata !"_ZN11ap_int_baseILi12ELb0ELb1EE9or_reduceEv", metadata !20, i32 2142, metadata !216, i1 false, i1 false, i32 0, i32 0, null, i1 false} ; [ DW_TAG_subprogram ]
!220 = metadata !{i32 458798, i32 0, metadata !19, metadata !"nor_reduce", metadata !"nor_reduce", metadata !"_ZN11ap_int_baseILi12ELb0ELb1EE10nor_reduceEv", metadata !20, i32 2145, metadata !216, i1 false, i1 false, i32 0, i32 0, null, i1 false} ; [ DW_TAG_subprogram ]
!221 = metadata !{i32 458798, i32 0, metadata !19, metadata !"xor_reduce", metadata !"xor_reduce", metadata !"_ZN11ap_int_baseILi12ELb0ELb1EE10xor_reduceEv", metadata !20, i32 2148, metadata !216, i1 false, i1 false, i32 0, i32 0, null, i1 false} ; [ DW_TAG_subprogram ]
!222 = metadata !{i32 458798, i32 0, metadata !19, metadata !"xnor_reduce", metadata !"xnor_reduce", metadata !"_ZN11ap_int_baseILi12ELb0ELb1EE11xnor_reduceEv", metadata !20, i32 2151, metadata !216, i1 false, i1 false, i32 0, i32 0, null, i1 false} ; [ DW_TAG_subprogram ]
!223 = metadata !{i32 458798, i32 0, metadata !19, metadata !"and_reduce", metadata !"and_reduce", metadata !"_ZNK11ap_int_baseILi12ELb0ELb1EE10and_reduceEv", metadata !20, i32 2155, metadata !139, i1 false, i1 false, i32 0, i32 0, null, i1 false} ; [ DW_TAG_subprogram ]
!224 = metadata !{i32 458798, i32 0, metadata !19, metadata !"nand_reduce", metadata !"nand_reduce", metadata !"_ZNK11ap_int_baseILi12ELb0ELb1EE11nand_reduceEv", metadata !20, i32 2158, metadata !139, i1 false, i1 false, i32 0, i32 0, null, i1 false} ; [ DW_TAG_subprogram ]
!225 = metadata !{i32 458798, i32 0, metadata !19, metadata !"or_reduce", metadata !"or_reduce", metadata !"_ZNK11ap_int_baseILi12ELb0ELb1EE9or_reduceEv", metadata !20, i32 2161, metadata !139, i1 false, i1 false, i32 0, i32 0, null, i1 false} ; [ DW_TAG_subprogram ]
!226 = metadata !{i32 458798, i32 0, metadata !19, metadata !"nor_reduce", metadata !"nor_reduce", metadata !"_ZNK11ap_int_baseILi12ELb0ELb1EE10nor_reduceEv", metadata !20, i32 2164, metadata !139, i1 false, i1 false, i32 0, i32 0, null, i1 false} ; [ DW_TAG_subprogram ]
!227 = metadata !{i32 458798, i32 0, metadata !19, metadata !"xor_reduce", metadata !"xor_reduce", metadata !"_ZNK11ap_int_baseILi12ELb0ELb1EE10xor_reduceEv", metadata !20, i32 2167, metadata !139, i1 false, i1 false, i32 0, i32 0, null, i1 false} ; [ DW_TAG_subprogram ]
!228 = metadata !{i32 458798, i32 0, metadata !19, metadata !"xnor_reduce", metadata !"xnor_reduce", metadata !"_ZNK11ap_int_baseILi12ELb0ELb1EE11xnor_reduceEv", metadata !20, i32 2170, metadata !139, i1 false, i1 false, i32 0, i32 0, null, i1 false} ; [ DW_TAG_subprogram ]
!229 = metadata !{i32 458798, i32 0, metadata !19, metadata !"to_string", metadata !"to_string", metadata !"_ZNK11ap_int_baseILi12ELb0ELb1EE9to_stringEPci8BaseModeb", metadata !20, i32 2177, metadata !230, i1 false, i1 false, i32 0, i32 0, null, i1 false} ; [ DW_TAG_subprogram ]
!230 = metadata !{i32 458773, metadata !2, metadata !"", metadata !2, i32 0, i64 0, i64 0, i64 0, i32 0, null, metadata !231, i32 0, null} ; [ DW_TAG_subroutine_type ]
!231 = metadata !{null, metadata !137, metadata !232, metadata !59, metadata !233, metadata !39}
!232 = metadata !{i32 458767, metadata !2, metadata !"", metadata !2, i32 0, i64 64, i64 64, i64 0, i32 0, metadata !93} ; [ DW_TAG_pointer_type ]
!233 = metadata !{i32 458756, metadata !2, metadata !"BaseMode", metadata !20, i32 551, i64 32, i64 32, i64 0, i32 0, null, metadata !234, i32 0, null} ; [ DW_TAG_enumeration_type ]
!234 = metadata !{metadata !235, metadata !236, metadata !237, metadata !238}
!235 = metadata !{i32 458792, metadata !"SC_BIN", i64 2} ; [ DW_TAG_enumerator ]
!236 = metadata !{i32 458792, metadata !"SC_OCT", i64 8} ; [ DW_TAG_enumerator ]
!237 = metadata !{i32 458792, metadata !"SC_DEC", i64 10} ; [ DW_TAG_enumerator ]
!238 = metadata !{i32 458792, metadata !"SC_HEX", i64 16} ; [ DW_TAG_enumerator ]
!239 = metadata !{i32 458798, i32 0, metadata !19, metadata !"to_string", metadata !"to_string", metadata !"_ZNK11ap_int_baseILi12ELb0ELb1EE9to_stringE8BaseModeb", metadata !20, i32 2204, metadata !240, i1 false, i1 false, i32 0, i32 0, null, i1 false} ; [ DW_TAG_subprogram ]
!240 = metadata !{i32 458773, metadata !2, metadata !"", metadata !2, i32 0, i64 0, i64 0, i64 0, i32 0, null, metadata !241, i32 0, null} ; [ DW_TAG_subroutine_type ]
!241 = metadata !{metadata !232, metadata !137, metadata !233, metadata !39}
!242 = metadata !{i32 458798, i32 0, metadata !19, metadata !"to_string", metadata !"to_string", metadata !"_ZNK11ap_int_baseILi12ELb0ELb1EE9to_stringEab", metadata !20, i32 2208, metadata !243, i1 false, i1 false, i32 0, i32 0, null, i1 false} ; [ DW_TAG_subprogram ]
!243 = metadata !{i32 458773, metadata !2, metadata !"", metadata !2, i32 0, i64 0, i64 0, i64 0, i32 0, null, metadata !244, i32 0, null} ; [ DW_TAG_subroutine_type ]
!244 = metadata !{metadata !232, metadata !137, metadata !43, metadata !39}
!245 = metadata !{i32 458798, i32 0, metadata !15, metadata !"ap_uint", metadata !"ap_uint", metadata !"", metadata !16, i32 137, metadata !246, i1 false, i1 false, i32 0, i32 0, null, i1 false} ; [ DW_TAG_subprogram ]
!246 = metadata !{i32 458773, metadata !2, metadata !"", metadata !2, i32 0, i64 0, i64 0, i64 0, i32 0, null, metadata !247, i32 0, null} ; [ DW_TAG_subroutine_type ]
!247 = metadata !{null, metadata !248}
!248 = metadata !{i32 458767, metadata !2, metadata !"", metadata !2, i32 0, i64 64, i64 64, i64 0, i32 64, metadata !15} ; [ DW_TAG_pointer_type ]
!249 = metadata !{i32 458798, i32 0, metadata !15, metadata !"ap_uint", metadata !"ap_uint", metadata !"", metadata !16, i32 199, metadata !250, i1 false, i1 false, i32 0, i32 0, null, i1 false} ; [ DW_TAG_subprogram ]
!250 = metadata !{i32 458773, metadata !2, metadata !"", metadata !2, i32 0, i64 0, i64 0, i64 0, i32 0, null, metadata !251, i32 0, null} ; [ DW_TAG_subroutine_type ]
!251 = metadata !{null, metadata !248, metadata !39}
!252 = metadata !{i32 458798, i32 0, metadata !15, metadata !"ap_uint", metadata !"ap_uint", metadata !"", metadata !16, i32 200, metadata !253, i1 false, i1 false, i32 0, i32 0, null, i1 false} ; [ DW_TAG_subprogram ]
!253 = metadata !{i32 458773, metadata !2, metadata !"", metadata !2, i32 0, i64 0, i64 0, i64 0, i32 0, null, metadata !254, i32 0, null} ; [ DW_TAG_subroutine_type ]
!254 = metadata !{null, metadata !248, metadata !43}
!255 = metadata !{i32 458798, i32 0, metadata !15, metadata !"ap_uint", metadata !"ap_uint", metadata !"", metadata !16, i32 201, metadata !256, i1 false, i1 false, i32 0, i32 0, null, i1 false} ; [ DW_TAG_subprogram ]
!256 = metadata !{i32 458773, metadata !2, metadata !"", metadata !2, i32 0, i64 0, i64 0, i64 0, i32 0, null, metadata !257, i32 0, null} ; [ DW_TAG_subroutine_type ]
!257 = metadata !{null, metadata !248, metadata !47}
!258 = metadata !{i32 458798, i32 0, metadata !15, metadata !"ap_uint", metadata !"ap_uint", metadata !"", metadata !16, i32 202, metadata !259, i1 false, i1 false, i32 0, i32 0, null, i1 false} ; [ DW_TAG_subprogram ]
!259 = metadata !{i32 458773, metadata !2, metadata !"", metadata !2, i32 0, i64 0, i64 0, i64 0, i32 0, null, metadata !260, i32 0, null} ; [ DW_TAG_subroutine_type ]
!260 = metadata !{null, metadata !248, metadata !51}
!261 = metadata !{i32 458798, i32 0, metadata !15, metadata !"ap_uint", metadata !"ap_uint", metadata !"", metadata !16, i32 203, metadata !262, i1 false, i1 false, i32 0, i32 0, null, i1 false} ; [ DW_TAG_subprogram ]
!262 = metadata !{i32 458773, metadata !2, metadata !"", metadata !2, i32 0, i64 0, i64 0, i64 0, i32 0, null, metadata !263, i32 0, null} ; [ DW_TAG_subroutine_type ]
!263 = metadata !{null, metadata !248, metadata !55}
!264 = metadata !{i32 458798, i32 0, metadata !15, metadata !"ap_uint", metadata !"ap_uint", metadata !"", metadata !16, i32 204, metadata !265, i1 false, i1 false, i32 0, i32 0, null, i1 false} ; [ DW_TAG_subprogram ]
!265 = metadata !{i32 458773, metadata !2, metadata !"", metadata !2, i32 0, i64 0, i64 0, i64 0, i32 0, null, metadata !266, i32 0, null} ; [ DW_TAG_subroutine_type ]
!266 = metadata !{null, metadata !248, metadata !59}
!267 = metadata !{i32 458798, i32 0, metadata !15, metadata !"ap_uint", metadata !"ap_uint", metadata !"", metadata !16, i32 205, metadata !268, i1 false, i1 false, i32 0, i32 0, null, i1 false} ; [ DW_TAG_subprogram ]
!268 = metadata !{i32 458773, metadata !2, metadata !"", metadata !2, i32 0, i64 0, i64 0, i64 0, i32 0, null, metadata !269, i32 0, null} ; [ DW_TAG_subroutine_type ]
!269 = metadata !{null, metadata !248, metadata !63}
!270 = metadata !{i32 458798, i32 0, metadata !15, metadata !"ap_uint", metadata !"ap_uint", metadata !"", metadata !16, i32 206, metadata !271, i1 false, i1 false, i32 0, i32 0, null, i1 false} ; [ DW_TAG_subprogram ]
!271 = metadata !{i32 458773, metadata !2, metadata !"", metadata !2, i32 0, i64 0, i64 0, i64 0, i32 0, null, metadata !272, i32 0, null} ; [ DW_TAG_subroutine_type ]
!272 = metadata !{null, metadata !248, metadata !67}
!273 = metadata !{i32 458798, i32 0, metadata !15, metadata !"ap_uint", metadata !"ap_uint", metadata !"", metadata !16, i32 207, metadata !274, i1 false, i1 false, i32 0, i32 0, null, i1 false} ; [ DW_TAG_subprogram ]
!274 = metadata !{i32 458773, metadata !2, metadata !"", metadata !2, i32 0, i64 0, i64 0, i64 0, i32 0, null, metadata !275, i32 0, null} ; [ DW_TAG_subroutine_type ]
!275 = metadata !{null, metadata !248, metadata !71}
!276 = metadata !{i32 458798, i32 0, metadata !15, metadata !"ap_uint", metadata !"ap_uint", metadata !"", metadata !16, i32 208, metadata !277, i1 false, i1 false, i32 0, i32 0, null, i1 false} ; [ DW_TAG_subprogram ]
!277 = metadata !{i32 458773, metadata !2, metadata !"", metadata !2, i32 0, i64 0, i64 0, i64 0, i32 0, null, metadata !278, i32 0, null} ; [ DW_TAG_subroutine_type ]
!278 = metadata !{null, metadata !248, metadata !79}
!279 = metadata !{i32 458798, i32 0, metadata !15, metadata !"ap_uint", metadata !"ap_uint", metadata !"", metadata !16, i32 209, metadata !280, i1 false, i1 false, i32 0, i32 0, null, i1 false} ; [ DW_TAG_subprogram ]
!280 = metadata !{i32 458773, metadata !2, metadata !"", metadata !2, i32 0, i64 0, i64 0, i64 0, i32 0, null, metadata !281, i32 0, null} ; [ DW_TAG_subroutine_type ]
!281 = metadata !{null, metadata !248, metadata !75}
!282 = metadata !{i32 458798, i32 0, metadata !15, metadata !"ap_uint", metadata !"ap_uint", metadata !"", metadata !16, i32 210, metadata !283, i1 false, i1 false, i32 0, i32 0, null, i1 false} ; [ DW_TAG_subprogram ]
!283 = metadata !{i32 458773, metadata !2, metadata !"", metadata !2, i32 0, i64 0, i64 0, i64 0, i32 0, null, metadata !284, i32 0, null} ; [ DW_TAG_subroutine_type ]
!284 = metadata !{null, metadata !248, metadata !83}
!285 = metadata !{i32 458798, i32 0, metadata !15, metadata !"ap_uint", metadata !"ap_uint", metadata !"", metadata !16, i32 211, metadata !286, i1 false, i1 false, i32 0, i32 0, null, i1 false} ; [ DW_TAG_subprogram ]
!286 = metadata !{i32 458773, metadata !2, metadata !"", metadata !2, i32 0, i64 0, i64 0, i64 0, i32 0, null, metadata !287, i32 0, null} ; [ DW_TAG_subroutine_type ]
!287 = metadata !{null, metadata !248, metadata !87}
!288 = metadata !{i32 458798, i32 0, metadata !15, metadata !"ap_uint", metadata !"ap_uint", metadata !"", metadata !16, i32 213, metadata !289, i1 false, i1 false, i32 0, i32 0, null, i1 false} ; [ DW_TAG_subprogram ]
!289 = metadata !{i32 458773, metadata !2, metadata !"", metadata !2, i32 0, i64 0, i64 0, i64 0, i32 0, null, metadata !290, i32 0, null} ; [ DW_TAG_subroutine_type ]
!290 = metadata !{null, metadata !248, metadata !91}
!291 = metadata !{i32 458798, i32 0, metadata !15, metadata !"ap_uint", metadata !"ap_uint", metadata !"", metadata !16, i32 214, metadata !292, i1 false, i1 false, i32 0, i32 0, null, i1 false} ; [ DW_TAG_subprogram ]
!292 = metadata !{i32 458773, metadata !2, metadata !"", metadata !2, i32 0, i64 0, i64 0, i64 0, i32 0, null, metadata !293, i32 0, null} ; [ DW_TAG_subroutine_type ]
!293 = metadata !{null, metadata !248, metadata !91, metadata !43}
!294 = metadata !{i32 458798, i32 0, metadata !15, metadata !"operator=", metadata !"operator=", metadata !"_ZNV7ap_uintILi12EEaSERKS0_", metadata !16, i32 217, metadata !295, i1 false, i1 false, i32 0, i32 0, null, i1 false} ; [ DW_TAG_subprogram ]
!295 = metadata !{i32 458773, metadata !2, metadata !"", metadata !2, i32 0, i64 0, i64 0, i64 0, i32 0, null, metadata !296, i32 0, null} ; [ DW_TAG_subroutine_type ]
!296 = metadata !{null, metadata !297, metadata !299}
!297 = metadata !{i32 458767, metadata !2, metadata !"", metadata !2, i32 0, i64 64, i64 64, i64 0, i32 64, metadata !298} ; [ DW_TAG_pointer_type ]
!298 = metadata !{i32 458805, metadata !2, metadata !"", metadata !2, i32 0, i64 16, i64 16, i64 0, i32 0, metadata !15} ; [ DW_TAG_volatile_type ]
!299 = metadata !{i32 458768, metadata !2, metadata !"", metadata !2, i32 0, i64 64, i64 64, i64 0, i32 0, metadata !300} ; [ DW_TAG_reference_type ]
!300 = metadata !{i32 458790, metadata !2, metadata !"", metadata !2, i32 0, i64 16, i64 16, i64 0, i32 0, metadata !15} ; [ DW_TAG_const_type ]
!301 = metadata !{i32 458798, i32 0, metadata !15, metadata !"operator=", metadata !"operator=", metadata !"_ZNV7ap_uintILi12EEaSERVKS0_", metadata !16, i32 221, metadata !302, i1 false, i1 false, i32 0, i32 0, null, i1 false} ; [ DW_TAG_subprogram ]
!302 = metadata !{i32 458773, metadata !2, metadata !"", metadata !2, i32 0, i64 0, i64 0, i64 0, i32 0, null, metadata !303, i32 0, null} ; [ DW_TAG_subroutine_type ]
!303 = metadata !{null, metadata !297, metadata !304}
!304 = metadata !{i32 458768, metadata !2, metadata !"", metadata !2, i32 0, i64 64, i64 64, i64 0, i32 0, metadata !305} ; [ DW_TAG_reference_type ]
!305 = metadata !{i32 458790, metadata !2, metadata !"", metadata !2, i32 0, i64 16, i64 16, i64 0, i32 0, metadata !298} ; [ DW_TAG_const_type ]
!306 = metadata !{i32 458798, i32 0, metadata !15, metadata !"operator=", metadata !"operator=", metadata !"_ZN7ap_uintILi12EEaSERVKS0_", metadata !16, i32 225, metadata !307, i1 false, i1 false, i32 0, i32 0, null, i1 false} ; [ DW_TAG_subprogram ]
!307 = metadata !{i32 458773, metadata !2, metadata !"", metadata !2, i32 0, i64 0, i64 0, i64 0, i32 0, null, metadata !308, i32 0, null} ; [ DW_TAG_subroutine_type ]
!308 = metadata !{metadata !309, metadata !248, metadata !304}
!309 = metadata !{i32 458768, metadata !2, metadata !"ap_uint<12>", metadata !2, i32 0, i64 64, i64 64, i64 0, i32 0, metadata !15} ; [ DW_TAG_reference_type ]
!310 = metadata !{i32 458798, i32 0, metadata !15, metadata !"operator=", metadata !"operator=", metadata !"_ZN7ap_uintILi12EEaSERKS0_", metadata !16, i32 230, metadata !311, i1 false, i1 true, i32 0, i32 0, null, i1 false} ; [ DW_TAG_subprogram ]
!311 = metadata !{i32 458773, metadata !2, metadata !"", metadata !2, i32 0, i64 0, i64 0, i64 0, i32 0, null, metadata !312, i32 0, null} ; [ DW_TAG_subroutine_type ]
!312 = metadata !{metadata !309, metadata !248, metadata !299}
!313 = metadata !{i32 458765, metadata !9, metadata !"cols", metadata !12, i32 465, i64 16, i64 16, i64 16, i32 0, metadata !15} ; [ DW_TAG_member ]
!314 = metadata !{i32 458765, metadata !9, metadata !"data_stream", metadata !12, i32 467, i64 24, i64 8, i64 32, i32 0, metadata !315} ; [ DW_TAG_member ]
!315 = metadata !{i32 458753, metadata !2, metadata !"", metadata !2, i32 0, i64 24, i64 8, i64 0, i32 0, metadata !316, metadata !360, i32 0, null} ; [ DW_TAG_array_type ]
!316 = metadata !{i32 458771, metadata !10, metadata !"stream<unsigned char>", metadata !11, i32 34, i64 8, i64 8, i64 0, i32 0, null, metadata !317, i32 0, null} ; [ DW_TAG_structure_type ]
!317 = metadata !{metadata !318, metadata !319, metadata !323, metadata !326, metadata !331, metadata !335, metadata !339, metadata !344, metadata !348, metadata !349, metadata !350, metadata !353, metadata !356, metadata !357}
!318 = metadata !{i32 458765, metadata !316, metadata !"V", metadata !11, i32 111, i64 8, i64 8, i64 0, i32 1, metadata !47} ; [ DW_TAG_member ]
!319 = metadata !{i32 458798, i32 0, metadata !316, metadata !"stream", metadata !"stream", metadata !"", metadata !11, i32 37, metadata !320, i1 false, i1 false, i32 0, i32 0, null, i1 false} ; [ DW_TAG_subprogram ]
!320 = metadata !{i32 458773, metadata !2, metadata !"", metadata !2, i32 0, i64 0, i64 0, i64 0, i32 0, null, metadata !321, i32 0, null} ; [ DW_TAG_subroutine_type ]
!321 = metadata !{null, metadata !322}
!322 = metadata !{i32 458767, metadata !2, metadata !"", metadata !2, i32 0, i64 64, i64 64, i64 0, i32 64, metadata !316} ; [ DW_TAG_pointer_type ]
!323 = metadata !{i32 458798, i32 0, metadata !316, metadata !"stream", metadata !"stream", metadata !"", metadata !11, i32 40, metadata !324, i1 false, i1 false, i32 0, i32 0, null, i1 false} ; [ DW_TAG_subprogram ]
!324 = metadata !{i32 458773, metadata !2, metadata !"", metadata !2, i32 0, i64 0, i64 0, i64 0, i32 0, null, metadata !325, i32 0, null} ; [ DW_TAG_subroutine_type ]
!325 = metadata !{null, metadata !322, metadata !91}
!326 = metadata !{i32 458798, i32 0, metadata !316, metadata !"stream", metadata !"stream", metadata !"", metadata !11, i32 45, metadata !327, i1 false, i1 false, i32 0, i32 0, null, i1 false} ; [ DW_TAG_subprogram ]
!327 = metadata !{i32 458773, metadata !2, metadata !"", metadata !2, i32 0, i64 0, i64 0, i64 0, i32 0, null, metadata !328, i32 0, null} ; [ DW_TAG_subroutine_type ]
!328 = metadata !{null, metadata !322, metadata !329}
!329 = metadata !{i32 458768, metadata !2, metadata !"", metadata !2, i32 0, i64 64, i64 64, i64 0, i32 0, metadata !330} ; [ DW_TAG_reference_type ]
!330 = metadata !{i32 458790, metadata !10, metadata !"", metadata !2, i32 0, i64 8, i64 8, i64 0, i32 0, metadata !316} ; [ DW_TAG_const_type ]
!331 = metadata !{i32 458798, i32 0, metadata !316, metadata !"operator=", metadata !"operator=", metadata !"_ZN3hls6streamIhEaSERKS1_", metadata !11, i32 48, metadata !332, i1 false, i1 false, i32 0, i32 0, null, i1 false} ; [ DW_TAG_subprogram ]
!332 = metadata !{i32 458773, metadata !2, metadata !"", metadata !2, i32 0, i64 0, i64 0, i64 0, i32 0, null, metadata !333, i32 0, null} ; [ DW_TAG_subroutine_type ]
!333 = metadata !{metadata !334, metadata !322, metadata !329}
!334 = metadata !{i32 458768, metadata !2, metadata !"hlsstream<unsigned char>", metadata !2, i32 0, i64 64, i64 64, i64 0, i32 0, metadata !316} ; [ DW_TAG_reference_type ]
!335 = metadata !{i32 458798, i32 0, metadata !316, metadata !"operator>>", metadata !"operator>>", metadata !"_ZN3hls6streamIhErsERh", metadata !11, i32 55, metadata !336, i1 false, i1 true, i32 0, i32 0, null, i1 false} ; [ DW_TAG_subprogram ]
!336 = metadata !{i32 458773, metadata !2, metadata !"", metadata !2, i32 0, i64 0, i64 0, i64 0, i32 0, null, metadata !337, i32 0, null} ; [ DW_TAG_subroutine_type ]
!337 = metadata !{null, metadata !322, metadata !338}
!338 = metadata !{i32 458768, metadata !2, metadata !"unsigned char", metadata !2, i32 0, i64 64, i64 64, i64 0, i32 0, metadata !47} ; [ DW_TAG_reference_type ]
!339 = metadata !{i32 458798, i32 0, metadata !316, metadata !"operator<<", metadata !"operator<<", metadata !"_ZN3hls6streamIhElsERKh", metadata !11, i32 59, metadata !340, i1 false, i1 true, i32 0, i32 0, null, i1 false} ; [ DW_TAG_subprogram ]
!340 = metadata !{i32 458773, metadata !2, metadata !"", metadata !2, i32 0, i64 0, i64 0, i64 0, i32 0, null, metadata !341, i32 0, null} ; [ DW_TAG_subroutine_type ]
!341 = metadata !{null, metadata !322, metadata !342}
!342 = metadata !{i32 458768, metadata !2, metadata !"", metadata !2, i32 0, i64 64, i64 64, i64 0, i32 0, metadata !343} ; [ DW_TAG_reference_type ]
!343 = metadata !{i32 458790, metadata !2, metadata !"", metadata !2, i32 0, i64 8, i64 8, i64 0, i32 0, metadata !47} ; [ DW_TAG_const_type ]
!344 = metadata !{i32 458798, i32 0, metadata !316, metadata !"empty", metadata !"empty", metadata !"_ZNK3hls6streamIhE5emptyEv", metadata !11, i32 66, metadata !345, i1 false, i1 false, i32 0, i32 0, null, i1 false} ; [ DW_TAG_subprogram ]
!345 = metadata !{i32 458773, metadata !2, metadata !"", metadata !2, i32 0, i64 0, i64 0, i64 0, i32 0, null, metadata !346, i32 0, null} ; [ DW_TAG_subroutine_type ]
!346 = metadata !{metadata !39, metadata !347}
!347 = metadata !{i32 458767, metadata !2, metadata !"", metadata !2, i32 0, i64 64, i64 64, i64 0, i32 64, metadata !330} ; [ DW_TAG_pointer_type ]
!348 = metadata !{i32 458798, i32 0, metadata !316, metadata !"full", metadata !"full", metadata !"_ZNK3hls6streamIhE4fullEv", metadata !11, i32 71, metadata !345, i1 false, i1 false, i32 0, i32 0, null, i1 false} ; [ DW_TAG_subprogram ]
!349 = metadata !{i32 458798, i32 0, metadata !316, metadata !"read", metadata !"read", metadata !"_ZN3hls6streamIhE4readERh", metadata !11, i32 77, metadata !336, i1 false, i1 true, i32 0, i32 0, null, i1 false} ; [ DW_TAG_subprogram ]
!350 = metadata !{i32 458798, i32 0, metadata !316, metadata !"read", metadata !"read", metadata !"_ZN3hls6streamIhE4readEv", metadata !11, i32 83, metadata !351, i1 false, i1 false, i32 0, i32 0, null, i1 false} ; [ DW_TAG_subprogram ]
!351 = metadata !{i32 458773, metadata !2, metadata !"", metadata !2, i32 0, i64 0, i64 0, i64 0, i32 0, null, metadata !352, i32 0, null} ; [ DW_TAG_subroutine_type ]
!352 = metadata !{metadata !47, metadata !322}
!353 = metadata !{i32 458798, i32 0, metadata !316, metadata !"read_nb", metadata !"read_nb", metadata !"_ZN3hls6streamIhE7read_nbERh", metadata !11, i32 90, metadata !354, i1 false, i1 false, i32 0, i32 0, null, i1 false} ; [ DW_TAG_subprogram ]
!354 = metadata !{i32 458773, metadata !2, metadata !"", metadata !2, i32 0, i64 0, i64 0, i64 0, i32 0, null, metadata !355, i32 0, null} ; [ DW_TAG_subroutine_type ]
!355 = metadata !{metadata !39, metadata !322, metadata !338}
!356 = metadata !{i32 458798, i32 0, metadata !316, metadata !"write", metadata !"write", metadata !"_ZN3hls6streamIhE5writeERKh", metadata !11, i32 98, metadata !340, i1 false, i1 true, i32 0, i32 0, null, i1 false} ; [ DW_TAG_subprogram ]
!357 = metadata !{i32 458798, i32 0, metadata !316, metadata !"write_nb", metadata !"write_nb", metadata !"_ZN3hls6streamIhE8write_nbERKh", metadata !11, i32 104, metadata !358, i1 false, i1 false, i32 0, i32 0, null, i1 false} ; [ DW_TAG_subprogram ]
!358 = metadata !{i32 458773, metadata !2, metadata !"", metadata !2, i32 0, i64 0, i64 0, i64 0, i32 0, null, metadata !359, i32 0, null} ; [ DW_TAG_subroutine_type ]
!359 = metadata !{metadata !39, metadata !322, metadata !342}
!360 = metadata !{metadata !361}
!361 = metadata !{i32 458785, i64 0, i64 2}       ; [ DW_TAG_subrange_type ]
!362 = metadata !{i32 458798, i32 0, metadata !9, metadata !"Mat", metadata !"Mat", metadata !"", metadata !12, i32 472, metadata !363, i1 false, i1 false, i32 0, i32 0, null, i1 false} ; [ DW_TAG_subprogram ]
!363 = metadata !{i32 458773, metadata !2, metadata !"", metadata !2, i32 0, i64 0, i64 0, i64 0, i32 0, null, metadata !364, i32 0, null} ; [ DW_TAG_subroutine_type ]
!364 = metadata !{null, metadata !365}
!365 = metadata !{i32 458767, metadata !2, metadata !"", metadata !2, i32 0, i64 64, i64 64, i64 0, i32 64, metadata !9} ; [ DW_TAG_pointer_type ]
!366 = metadata !{i32 458798, i32 0, metadata !9, metadata !"Mat", metadata !"Mat", metadata !"", metadata !12, i32 477, metadata !367, i1 false, i1 false, i32 0, i32 0, null, i1 false} ; [ DW_TAG_subprogram ]
!367 = metadata !{i32 458773, metadata !2, metadata !"", metadata !2, i32 0, i64 0, i64 0, i64 0, i32 0, null, metadata !368, i32 0, null} ; [ DW_TAG_subroutine_type ]
!368 = metadata !{null, metadata !365, metadata !59, metadata !59}
!369 = metadata !{i32 458798, i32 0, metadata !9, metadata !"Mat", metadata !"Mat", metadata !"", metadata !12, i32 482, metadata !370, i1 false, i1 false, i32 0, i32 0, null, i1 false} ; [ DW_TAG_subprogram ]
!370 = metadata !{i32 458773, metadata !2, metadata !"", metadata !2, i32 0, i64 0, i64 0, i64 0, i32 0, null, metadata !371, i32 0, null} ; [ DW_TAG_subroutine_type ]
!371 = metadata !{null, metadata !365, metadata !372}
!372 = metadata !{i32 458771, metadata !10, metadata !"Size_<int>", metadata !12, i32 113, i64 64, i64 32, i64 0, i32 0, null, metadata !373, i32 0, null} ; [ DW_TAG_structure_type ]
!373 = metadata !{metadata !374, metadata !375, metadata !376, metadata !380, metadata !383, metadata !388, metadata !410, metadata !413}
!374 = metadata !{i32 458765, metadata !372, metadata !"width", metadata !12, i32 122, i64 32, i64 32, i64 0, i32 0, metadata !59} ; [ DW_TAG_member ]
!375 = metadata !{i32 458765, metadata !372, metadata !"height", metadata !12, i32 122, i64 32, i64 32, i64 32, i32 0, metadata !59} ; [ DW_TAG_member ]
!376 = metadata !{i32 458798, i32 0, metadata !372, metadata !"Size_", metadata !"Size_", metadata !"", metadata !12, i32 126, metadata !377, i1 false, i1 false, i32 0, i32 0, null, i1 false} ; [ DW_TAG_subprogram ]
!377 = metadata !{i32 458773, metadata !2, metadata !"", metadata !2, i32 0, i64 0, i64 0, i64 0, i32 0, null, metadata !378, i32 0, null} ; [ DW_TAG_subroutine_type ]
!378 = metadata !{null, metadata !379}
!379 = metadata !{i32 458767, metadata !2, metadata !"", metadata !2, i32 0, i64 64, i64 64, i64 0, i32 64, metadata !372} ; [ DW_TAG_pointer_type ]
!380 = metadata !{i32 458798, i32 0, metadata !372, metadata !"Size_", metadata !"Size_", metadata !"", metadata !12, i32 127, metadata !381, i1 false, i1 false, i32 0, i32 0, null, i1 false} ; [ DW_TAG_subprogram ]
!381 = metadata !{i32 458773, metadata !2, metadata !"", metadata !2, i32 0, i64 0, i64 0, i64 0, i32 0, null, metadata !382, i32 0, null} ; [ DW_TAG_subroutine_type ]
!382 = metadata !{null, metadata !379, metadata !59, metadata !59}
!383 = metadata !{i32 458798, i32 0, metadata !372, metadata !"Size_", metadata !"Size_", metadata !"", metadata !12, i32 128, metadata !384, i1 false, i1 false, i32 0, i32 0, null, i1 false} ; [ DW_TAG_subprogram ]
!384 = metadata !{i32 458773, metadata !2, metadata !"", metadata !2, i32 0, i64 0, i64 0, i64 0, i32 0, null, metadata !385, i32 0, null} ; [ DW_TAG_subroutine_type ]
!385 = metadata !{null, metadata !379, metadata !386}
!386 = metadata !{i32 458768, metadata !2, metadata !"", metadata !2, i32 0, i64 64, i64 64, i64 0, i32 0, metadata !387} ; [ DW_TAG_reference_type ]
!387 = metadata !{i32 458790, metadata !10, metadata !"", metadata !2, i32 0, i64 64, i64 32, i64 0, i32 0, metadata !372} ; [ DW_TAG_const_type ]
!388 = metadata !{i32 458798, i32 0, metadata !372, metadata !"Size_", metadata !"Size_", metadata !"", metadata !12, i32 129, metadata !389, i1 false, i1 false, i32 0, i32 0, null, i1 false} ; [ DW_TAG_subprogram ]
!389 = metadata !{i32 458773, metadata !2, metadata !"", metadata !2, i32 0, i64 0, i64 0, i64 0, i32 0, null, metadata !390, i32 0, null} ; [ DW_TAG_subroutine_type ]
!390 = metadata !{null, metadata !379, metadata !391}
!391 = metadata !{i32 458768, metadata !2, metadata !"", metadata !2, i32 0, i64 64, i64 64, i64 0, i32 0, metadata !392} ; [ DW_TAG_reference_type ]
!392 = metadata !{i32 458790, metadata !10, metadata !"", metadata !2, i32 0, i64 64, i64 32, i64 0, i32 0, metadata !393} ; [ DW_TAG_const_type ]
!393 = metadata !{i32 458771, metadata !10, metadata !"Point_<int>", metadata !12, i32 92, i64 64, i64 32, i64 0, i32 0, null, metadata !394, i32 0, null} ; [ DW_TAG_structure_type ]
!394 = metadata !{metadata !395, metadata !396, metadata !397, metadata !401, metadata !404, metadata !407}
!395 = metadata !{i32 458765, metadata !393, metadata !"x", metadata !12, i32 99, i64 32, i64 32, i64 0, i32 0, metadata !59} ; [ DW_TAG_member ]
!396 = metadata !{i32 458765, metadata !393, metadata !"y", metadata !12, i32 99, i64 32, i64 32, i64 32, i32 0, metadata !59} ; [ DW_TAG_member ]
!397 = metadata !{i32 458798, i32 0, metadata !393, metadata !"Point_", metadata !"Point_", metadata !"", metadata !12, i32 103, metadata !398, i1 false, i1 false, i32 0, i32 0, null, i1 false} ; [ DW_TAG_subprogram ]
!398 = metadata !{i32 458773, metadata !2, metadata !"", metadata !2, i32 0, i64 0, i64 0, i64 0, i32 0, null, metadata !399, i32 0, null} ; [ DW_TAG_subroutine_type ]
!399 = metadata !{null, metadata !400}
!400 = metadata !{i32 458767, metadata !2, metadata !"", metadata !2, i32 0, i64 64, i64 64, i64 0, i32 64, metadata !393} ; [ DW_TAG_pointer_type ]
!401 = metadata !{i32 458798, i32 0, metadata !393, metadata !"Point_", metadata !"Point_", metadata !"", metadata !12, i32 104, metadata !402, i1 false, i1 false, i32 0, i32 0, null, i1 false} ; [ DW_TAG_subprogram ]
!402 = metadata !{i32 458773, metadata !2, metadata !"", metadata !2, i32 0, i64 0, i64 0, i64 0, i32 0, null, metadata !403, i32 0, null} ; [ DW_TAG_subroutine_type ]
!403 = metadata !{null, metadata !400, metadata !59, metadata !59}
!404 = metadata !{i32 458798, i32 0, metadata !393, metadata !"Point_", metadata !"Point_", metadata !"", metadata !12, i32 105, metadata !405, i1 false, i1 false, i32 0, i32 0, null, i1 false} ; [ DW_TAG_subprogram ]
!405 = metadata !{i32 458773, metadata !2, metadata !"", metadata !2, i32 0, i64 0, i64 0, i64 0, i32 0, null, metadata !406, i32 0, null} ; [ DW_TAG_subroutine_type ]
!406 = metadata !{null, metadata !400, metadata !391}
!407 = metadata !{i32 458798, i32 0, metadata !393, metadata !"~Point_", metadata !"~Point_", metadata !"", metadata !12, i32 106, metadata !408, i1 false, i1 false, i32 0, i32 0, null, i1 false} ; [ DW_TAG_subprogram ]
!408 = metadata !{i32 458773, metadata !2, metadata !"", metadata !2, i32 0, i64 0, i64 0, i64 0, i32 0, null, metadata !409, i32 0, null} ; [ DW_TAG_subroutine_type ]
!409 = metadata !{null, metadata !400, metadata !59}
!410 = metadata !{i32 458798, i32 0, metadata !372, metadata !"area", metadata !"area", metadata !"_ZN3hls5Size_IiE4areaEv", metadata !12, i32 130, metadata !411, i1 false, i1 false, i32 0, i32 0, null, i1 false} ; [ DW_TAG_subprogram ]
!411 = metadata !{i32 458773, metadata !2, metadata !"", metadata !2, i32 0, i64 0, i64 0, i64 0, i32 0, null, metadata !412, i32 0, null} ; [ DW_TAG_subroutine_type ]
!412 = metadata !{metadata !59, metadata !379}
!413 = metadata !{i32 458798, i32 0, metadata !372, metadata !"~Size_", metadata !"~Size_", metadata !"", metadata !12, i32 131, metadata !414, i1 false, i1 false, i32 0, i32 0, null, i1 false} ; [ DW_TAG_subprogram ]
!414 = metadata !{i32 458773, metadata !2, metadata !"", metadata !2, i32 0, i64 0, i64 0, i64 0, i32 0, null, metadata !415, i32 0, null} ; [ DW_TAG_subroutine_type ]
!415 = metadata !{null, metadata !379, metadata !59}
!416 = metadata !{i32 458798, i32 0, metadata !9, metadata !"init", metadata !"init", metadata !"_ZN3hls3MatILi1080ELi1920ELi16EE4initEii", metadata !12, i32 487, metadata !367, i1 false, i1 true, i32 0, i32 0, null, i1 false} ; [ DW_TAG_subprogram ]
!417 = metadata !{i32 458798, i32 0, metadata !9, metadata !"assignto", metadata !"assignto", metadata !"_ZN3hls3MatILi1080ELi1920ELi16EE8assigntoERS1_", metadata !12, i32 494, metadata !418, i1 false, i1 false, i32 0, i32 0, null, i1 false} ; [ DW_TAG_subprogram ]
!418 = metadata !{i32 458773, metadata !2, metadata !"", metadata !2, i32 0, i64 0, i64 0, i64 0, i32 0, null, metadata !419, i32 0, null} ; [ DW_TAG_subroutine_type ]
!419 = metadata !{null, metadata !365, metadata !420}
!420 = metadata !{i32 458768, metadata !2, metadata !"hlsMat<1080,1920,16>", metadata !2, i32 0, i64 64, i64 64, i64 0, i32 0, metadata !9} ; [ DW_TAG_reference_type ]
!421 = metadata !{i32 458798, i32 0, metadata !9, metadata !"read", metadata !"read", metadata !"_ZN3hls3MatILi1080ELi1920ELi16EE4readEv", metadata !12, i32 501, metadata !422, i1 false, i1 true, i32 0, i32 0, null, i1 false} ; [ DW_TAG_subprogram ]
!422 = metadata !{i32 458773, metadata !2, metadata !"", metadata !2, i32 0, i64 0, i64 0, i64 0, i32 0, null, metadata !423, i32 0, null} ; [ DW_TAG_subroutine_type ]
!423 = metadata !{metadata !424, metadata !365}
!424 = metadata !{i32 458771, metadata !10, metadata !"Scalar<3,unsigned char>", metadata !12, i32 175, i64 24, i64 8, i64 0, i32 0, null, metadata !425, i32 0, null} ; [ DW_TAG_structure_type ]
!425 = metadata !{metadata !426, metadata !428, metadata !432, metadata !435, metadata !438, metadata !441}
!426 = metadata !{i32 458765, metadata !424, metadata !"val", metadata !12, i32 201, i64 24, i64 8, i64 0, i32 0, metadata !427} ; [ DW_TAG_member ]
!427 = metadata !{i32 458753, metadata !2, metadata !"", metadata !2, i32 0, i64 24, i64 8, i64 0, i32 0, metadata !47, metadata !360, i32 0, null} ; [ DW_TAG_array_type ]
!428 = metadata !{i32 458798, i32 0, metadata !424, metadata !"Scalar", metadata !"Scalar", metadata !"", metadata !12, i32 177, metadata !429, i1 false, i1 false, i32 0, i32 0, null, i1 false} ; [ DW_TAG_subprogram ]
!429 = metadata !{i32 458773, metadata !2, metadata !"", metadata !2, i32 0, i64 0, i64 0, i64 0, i32 0, null, metadata !430, i32 0, null} ; [ DW_TAG_subroutine_type ]
!430 = metadata !{null, metadata !431}
!431 = metadata !{i32 458767, metadata !2, metadata !"", metadata !2, i32 0, i64 64, i64 64, i64 0, i32 64, metadata !424} ; [ DW_TAG_pointer_type ]
!432 = metadata !{i32 458798, i32 0, metadata !424, metadata !"Scalar", metadata !"Scalar", metadata !"", metadata !12, i32 181, metadata !433, i1 false, i1 false, i32 0, i32 0, null, i1 false} ; [ DW_TAG_subprogram ]
!433 = metadata !{i32 458773, metadata !2, metadata !"", metadata !2, i32 0, i64 0, i64 0, i64 0, i32 0, null, metadata !434, i32 0, null} ; [ DW_TAG_subroutine_type ]
!434 = metadata !{null, metadata !431, metadata !47}
!435 = metadata !{i32 458798, i32 0, metadata !424, metadata !"Scalar", metadata !"Scalar", metadata !"", metadata !12, i32 186, metadata !436, i1 false, i1 false, i32 0, i32 0, null, i1 false} ; [ DW_TAG_subprogram ]
!436 = metadata !{i32 458773, metadata !2, metadata !"", metadata !2, i32 0, i64 0, i64 0, i64 0, i32 0, null, metadata !437, i32 0, null} ; [ DW_TAG_subroutine_type ]
!437 = metadata !{null, metadata !431, metadata !47, metadata !47}
!438 = metadata !{i32 458798, i32 0, metadata !424, metadata !"Scalar", metadata !"Scalar", metadata !"", metadata !12, i32 191, metadata !439, i1 false, i1 false, i32 0, i32 0, null, i1 false} ; [ DW_TAG_subprogram ]
!439 = metadata !{i32 458773, metadata !2, metadata !"", metadata !2, i32 0, i64 0, i64 0, i64 0, i32 0, null, metadata !440, i32 0, null} ; [ DW_TAG_subroutine_type ]
!440 = metadata !{null, metadata !431, metadata !47, metadata !47, metadata !47}
!441 = metadata !{i32 458798, i32 0, metadata !424, metadata !"Scalar", metadata !"Scalar", metadata !"", metadata !12, i32 196, metadata !442, i1 false, i1 false, i32 0, i32 0, null, i1 false} ; [ DW_TAG_subprogram ]
!442 = metadata !{i32 458773, metadata !2, metadata !"", metadata !2, i32 0, i64 0, i64 0, i64 0, i32 0, null, metadata !443, i32 0, null} ; [ DW_TAG_subroutine_type ]
!443 = metadata !{null, metadata !431, metadata !47, metadata !47, metadata !47, metadata !47}
!444 = metadata !{i32 458798, i32 0, metadata !9, metadata !"read", metadata !"read", metadata !"_ZN3hls3MatILi1080ELi1920ELi16EE4readERNS_6ScalarILi3EhEE", metadata !12, i32 513, metadata !445, i1 false, i1 false, i32 0, i32 0, null, i1 false} ; [ DW_TAG_subprogram ]
!445 = metadata !{i32 458773, metadata !2, metadata !"", metadata !2, i32 0, i64 0, i64 0, i64 0, i32 0, null, metadata !446, i32 0, null} ; [ DW_TAG_subroutine_type ]
!446 = metadata !{null, metadata !365, metadata !447}
!447 = metadata !{i32 458768, metadata !2, metadata !"Scalar<3,unsigned char>", metadata !2, i32 0, i64 64, i64 64, i64 0, i32 0, metadata !424} ; [ DW_TAG_reference_type ]
!448 = metadata !{i32 458798, i32 0, metadata !9, metadata !"write", metadata !"write", metadata !"_ZN3hls3MatILi1080ELi1920ELi16EE5writeENS_6ScalarILi3EhEE", metadata !12, i32 519, metadata !449, i1 false, i1 true, i32 0, i32 0, null, i1 false} ; [ DW_TAG_subprogram ]
!449 = metadata !{i32 458773, metadata !2, metadata !"", metadata !2, i32 0, i64 0, i64 0, i64 0, i32 0, null, metadata !450, i32 0, null} ; [ DW_TAG_subroutine_type ]
!450 = metadata !{null, metadata !365, metadata !424}
!451 = metadata !{i32 458798, i32 0, metadata !9, metadata !"operator>>", metadata !"operator>>", metadata !"_ZN3hls3MatILi1080ELi1920ELi16EErsERNS_6ScalarILi3EhEE", metadata !12, i32 529, metadata !445, i1 false, i1 true, i32 0, i32 0, null, i1 false} ; [ DW_TAG_subprogram ]
!452 = metadata !{i32 458798, i32 0, metadata !9, metadata !"operator<<", metadata !"operator<<", metadata !"_ZN3hls3MatILi1080ELi1920ELi16EElsENS_6ScalarILi3EhEE", metadata !12, i32 535, metadata !449, i1 false, i1 true, i32 0, i32 0, null, i1 false} ; [ DW_TAG_subprogram ]
!453 = metadata !{i32 458798, i32 0, metadata !9, metadata !"empty", metadata !"empty", metadata !"_ZN3hls3MatILi1080ELi1920ELi16EE5emptyEv", metadata !12, i32 541, metadata !454, i1 false, i1 false, i32 0, i32 0, null, i1 false} ; [ DW_TAG_subprogram ]
!454 = metadata !{i32 458773, metadata !2, metadata !"", metadata !2, i32 0, i64 0, i64 0, i64 0, i32 0, null, metadata !455, i32 0, null} ; [ DW_TAG_subroutine_type ]
!455 = metadata !{metadata !39, metadata !365}
!456 = metadata !{i32 458798, i32 0, metadata !9, metadata !"type", metadata !"type", metadata !"_ZNK3hls3MatILi1080ELi1920ELi16EE4typeEv", metadata !12, i32 553, metadata !457, i1 false, i1 false, i32 0, i32 0, null, i1 false} ; [ DW_TAG_subprogram ]
!457 = metadata !{i32 458773, metadata !2, metadata !"", metadata !2, i32 0, i64 0, i64 0, i64 0, i32 0, null, metadata !458, i32 0, null} ; [ DW_TAG_subroutine_type ]
!458 = metadata !{metadata !459, metadata !460}
!459 = metadata !{i32 458790, metadata !2, metadata !"", metadata !2, i32 0, i64 32, i64 32, i64 0, i32 0, metadata !59} ; [ DW_TAG_const_type ]
!460 = metadata !{i32 458767, metadata !2, metadata !"", metadata !2, i32 0, i64 64, i64 64, i64 0, i32 64, metadata !461} ; [ DW_TAG_pointer_type ]
!461 = metadata !{i32 458790, metadata !10, metadata !"", metadata !2, i32 0, i64 64, i64 16, i64 0, i32 0, metadata !9} ; [ DW_TAG_const_type ]
!462 = metadata !{i32 458798, i32 0, metadata !9, metadata !"depth", metadata !"depth", metadata !"_ZNK3hls3MatILi1080ELi1920ELi16EE5depthEv", metadata !12, i32 559, metadata !457, i1 false, i1 true, i32 0, i32 0, null, i1 false} ; [ DW_TAG_subprogram ]
!463 = metadata !{i32 458798, i32 0, metadata !9, metadata !"channels", metadata !"channels", metadata !"_ZNK3hls3MatILi1080ELi1920ELi16EE8channelsEv", metadata !12, i32 564, metadata !457, i1 false, i1 false, i32 0, i32 0, null, i1 false} ; [ DW_TAG_subprogram ]
!464 = metadata !{i32 458753, metadata !2, metadata !"", metadata !2, i32 0, i64 288, i64 32, i64 0, i32 0, metadata !59, metadata !465, i32 0, null} ; [ DW_TAG_array_type ]
!465 = metadata !{metadata !361, metadata !361}
!466 = metadata !{i32 80, i32 0, metadata !467, null}
!467 = metadata !{i32 458763, metadata !468, i32 65, i32 0} ; [ DW_TAG_lexical_block ]
!468 = metadata !{i32 458763, metadata !469, i32 65, i32 0} ; [ DW_TAG_lexical_block ]
!469 = metadata !{i32 458798, i32 0, metadata !2, metadata !"image_filter", metadata !"image_filter", metadata !"_Z12image_filterRN3hls6streamI7ap_axiuILi64ELi1ELi1ELi1EEEES4_ii", metadata !3, i32 65, metadata !470, i1 false, i1 true, i32 0, i32 0, null, i1 false} ; [ DW_TAG_subprogram ]
!470 = metadata !{i32 458773, metadata !2, metadata !"", metadata !2, i32 0, i64 0, i64 0, i64 0, i32 0, null, metadata !471, i32 0, null} ; [ DW_TAG_subroutine_type ]
!471 = metadata !{null, metadata !472, metadata !472, metadata !59, metadata !59}
!472 = metadata !{i32 458768, metadata !2, metadata !"AXI_STREAM", metadata !2, i32 0, i64 64, i64 64, i64 0, i32 0, metadata !473} ; [ DW_TAG_reference_type ]
!473 = metadata !{i32 458774, metadata !2, metadata !"AXI_STREAM", metadata !474, i32 644, i64 0, i64 0, i64 0, i32 0, metadata !475} ; [ DW_TAG_typedef ]
!474 = metadata !{i32 458769, i32 0, i32 4, metadata !"x_hls_utils.h", metadata !"/ise_local2/umair_temp/Vivado_HLS/2013.1/common/technology/autopilot/hls/utils", metadata !"4.2.1 (Based on Apple Inc. build 5658) (LLVM build 2.7)", i1 false, i1 false, metadata !"", i32 0} ; [ DW_TAG_compile_unit ]
!475 = metadata !{i32 458771, metadata !10, metadata !"stream<ap_axiu<64, 1, 1, 1> >", metadata !11, i32 34, i64 128, i64 64, i64 0, i32 0, null, metadata !476, i32 0, null} ; [ DW_TAG_structure_type ]
!476 = metadata !{metadata !477, metadata !1481, metadata !1485, metadata !1488, metadata !1493, metadata !1497, metadata !1500, metadata !1503, metadata !1507, metadata !1508, metadata !1509, metadata !1512, metadata !1515, metadata !1516}
!477 = metadata !{i32 458765, metadata !475, metadata !"V", metadata !11, i32 111, i64 128, i64 64, i64 0, i32 1, metadata !478} ; [ DW_TAG_member ]
!478 = metadata !{i32 458771, metadata !2, metadata !"ap_axiu<64,1,1,1>", metadata !479, i32 55, i64 128, i64 64, i64 0, i32 0, null, metadata !480, i32 0, null} ; [ DW_TAG_structure_type ]
!479 = metadata !{i32 458769, i32 0, i32 4, metadata !"ap_axi_sdata.h", metadata !"/ise_local2/umair_temp/Vivado_HLS/2013.1/common/technology/autopilot", metadata !"4.2.1 (Based on Apple Inc. build 5658) (LLVM build 2.7)", i1 false, i1 false, metadata !"", i32 0} ; [ DW_TAG_compile_unit ]
!480 = metadata !{metadata !481, metadata !839, metadata !1165, metadata !1166, metadata !1468, metadata !1469, metadata !1470, metadata !1471, metadata !1478}
!481 = metadata !{i32 458765, metadata !478, metadata !"data", metadata !479, i32 56, i64 64, i64 64, i64 0, i32 0, metadata !482} ; [ DW_TAG_member ]
!482 = metadata !{i32 458771, metadata !2, metadata !"ap_uint<64>", metadata !16, i32 134, i64 64, i64 64, i64 0, i32 0, null, metadata !483, i32 0, null} ; [ DW_TAG_structure_type ]
!483 = metadata !{metadata !484, metadata !771, metadata !775, metadata !778, metadata !781, metadata !784, metadata !787, metadata !790, metadata !793, metadata !796, metadata !799, metadata !802, metadata !805, metadata !808, metadata !811, metadata !814, metadata !817, metadata !820, metadata !827, metadata !832, metadata !836}
!484 = metadata !{i32 458780, metadata !2, metadata !"", null, i32 0, i64 0, i64 0, i64 0, i32 0, metadata !485} ; [ DW_TAG_inheritance ]
!485 = metadata !{i32 458771, metadata !2, metadata !"ap_int_base<64,false,true>", metadata !20, i32 599, i64 64, i64 64, i64 0, i32 0, null, metadata !486, i32 0, null} ; [ DW_TAG_structure_type ]
!486 = metadata !{metadata !487, metadata !496, metadata !500, metadata !503, metadata !506, metadata !509, metadata !512, metadata !515, metadata !518, metadata !521, metadata !524, metadata !527, metadata !530, metadata !533, metadata !536, metadata !539, metadata !542, metadata !545, metadata !550, metadata !555, metadata !560, metadata !561, metadata !565, metadata !568, metadata !571, metadata !574, metadata !577, metadata !580, metadata !584, metadata !587, metadata !590, metadata !593, metadata !596, metadata !599, metadata !602, metadata !603, metadata !606, metadata !607, metadata !611, metadata !614, metadata !615, metadata !616, metadata !617, metadata !618, metadata !619, metadata !622, metadata !623, metadata !626, metadata !627, metadata !628, metadata !629, metadata !630, metadata !631, metadata !634, metadata !635, metadata !636, metadata !639, metadata !640, metadata !643, metadata !644, metadata !704, metadata !705, metadata !708, metadata !709, metadata !745, metadata !746, metadata !747, metadata !748, metadata !751, metadata !752, metadata !753, metadata !754, metadata !755, metadata !756, metadata !757, metadata !758, metadata !759, metadata !760, metadata !761, metadata !762, metadata !765, metadata !768}
!487 = metadata !{i32 458780, metadata !2, metadata !"", null, i32 0, i64 0, i64 0, i64 0, i32 0, metadata !488} ; [ DW_TAG_inheritance ]
!488 = metadata !{i32 458771, metadata !2, metadata !"ssdm_int<64,false>", metadata !24, i32 68, i64 64, i64 64, i64 0, i32 0, null, metadata !489, i32 0, null} ; [ DW_TAG_structure_type ]
!489 = metadata !{metadata !490, metadata !492}
!490 = metadata !{i32 458765, metadata !488, metadata !"V", metadata !24, i32 68, i64 64, i64 64, i64 0, i32 0, metadata !491} ; [ DW_TAG_member ]
!491 = metadata !{i32 458788, metadata !2, metadata !"", metadata !2, i32 0, i64 64, i64 64, i64 0, i32 0, i32 7} ; [ DW_TAG_base_type ]
!492 = metadata !{i32 458798, i32 0, metadata !488, metadata !"ssdm_int", metadata !"ssdm_int", metadata !"", metadata !24, i32 68, metadata !493, i1 false, i1 false, i32 0, i32 0, null, i1 false} ; [ DW_TAG_subprogram ]
!493 = metadata !{i32 458773, metadata !2, metadata !"", metadata !2, i32 0, i64 0, i64 0, i64 0, i32 0, null, metadata !494, i32 0, null} ; [ DW_TAG_subroutine_type ]
!494 = metadata !{null, metadata !495}
!495 = metadata !{i32 458767, metadata !2, metadata !"", metadata !2, i32 0, i64 64, i64 64, i64 0, i32 64, metadata !488} ; [ DW_TAG_pointer_type ]
!496 = metadata !{i32 458798, i32 0, metadata !485, metadata !"ap_int_base", metadata !"ap_int_base", metadata !"", metadata !20, i32 1331, metadata !497, i1 false, i1 false, i32 0, i32 0, null, i1 false} ; [ DW_TAG_subprogram ]
!497 = metadata !{i32 458773, metadata !2, metadata !"", metadata !2, i32 0, i64 0, i64 0, i64 0, i32 0, null, metadata !498, i32 0, null} ; [ DW_TAG_subroutine_type ]
!498 = metadata !{null, metadata !499}
!499 = metadata !{i32 458767, metadata !2, metadata !"", metadata !2, i32 0, i64 64, i64 64, i64 0, i32 64, metadata !485} ; [ DW_TAG_pointer_type ]
!500 = metadata !{i32 458798, i32 0, metadata !485, metadata !"ap_int_base", metadata !"ap_int_base", metadata !"", metadata !20, i32 1353, metadata !501, i1 false, i1 false, i32 0, i32 0, null, i1 false} ; [ DW_TAG_subprogram ]
!501 = metadata !{i32 458773, metadata !2, metadata !"", metadata !2, i32 0, i64 0, i64 0, i64 0, i32 0, null, metadata !502, i32 0, null} ; [ DW_TAG_subroutine_type ]
!502 = metadata !{null, metadata !499, metadata !39}
!503 = metadata !{i32 458798, i32 0, metadata !485, metadata !"ap_int_base", metadata !"ap_int_base", metadata !"", metadata !20, i32 1354, metadata !504, i1 false, i1 false, i32 0, i32 0, null, i1 false} ; [ DW_TAG_subprogram ]
!504 = metadata !{i32 458773, metadata !2, metadata !"", metadata !2, i32 0, i64 0, i64 0, i64 0, i32 0, null, metadata !505, i32 0, null} ; [ DW_TAG_subroutine_type ]
!505 = metadata !{null, metadata !499, metadata !43}
!506 = metadata !{i32 458798, i32 0, metadata !485, metadata !"ap_int_base", metadata !"ap_int_base", metadata !"", metadata !20, i32 1355, metadata !507, i1 false, i1 false, i32 0, i32 0, null, i1 false} ; [ DW_TAG_subprogram ]
!507 = metadata !{i32 458773, metadata !2, metadata !"", metadata !2, i32 0, i64 0, i64 0, i64 0, i32 0, null, metadata !508, i32 0, null} ; [ DW_TAG_subroutine_type ]
!508 = metadata !{null, metadata !499, metadata !47}
!509 = metadata !{i32 458798, i32 0, metadata !485, metadata !"ap_int_base", metadata !"ap_int_base", metadata !"", metadata !20, i32 1356, metadata !510, i1 false, i1 false, i32 0, i32 0, null, i1 false} ; [ DW_TAG_subprogram ]
!510 = metadata !{i32 458773, metadata !2, metadata !"", metadata !2, i32 0, i64 0, i64 0, i64 0, i32 0, null, metadata !511, i32 0, null} ; [ DW_TAG_subroutine_type ]
!511 = metadata !{null, metadata !499, metadata !51}
!512 = metadata !{i32 458798, i32 0, metadata !485, metadata !"ap_int_base", metadata !"ap_int_base", metadata !"", metadata !20, i32 1357, metadata !513, i1 false, i1 false, i32 0, i32 0, null, i1 false} ; [ DW_TAG_subprogram ]
!513 = metadata !{i32 458773, metadata !2, metadata !"", metadata !2, i32 0, i64 0, i64 0, i64 0, i32 0, null, metadata !514, i32 0, null} ; [ DW_TAG_subroutine_type ]
!514 = metadata !{null, metadata !499, metadata !55}
!515 = metadata !{i32 458798, i32 0, metadata !485, metadata !"ap_int_base", metadata !"ap_int_base", metadata !"", metadata !20, i32 1358, metadata !516, i1 false, i1 false, i32 0, i32 0, null, i1 false} ; [ DW_TAG_subprogram ]
!516 = metadata !{i32 458773, metadata !2, metadata !"", metadata !2, i32 0, i64 0, i64 0, i64 0, i32 0, null, metadata !517, i32 0, null} ; [ DW_TAG_subroutine_type ]
!517 = metadata !{null, metadata !499, metadata !59}
!518 = metadata !{i32 458798, i32 0, metadata !485, metadata !"ap_int_base", metadata !"ap_int_base", metadata !"", metadata !20, i32 1359, metadata !519, i1 false, i1 false, i32 0, i32 0, null, i1 false} ; [ DW_TAG_subprogram ]
!519 = metadata !{i32 458773, metadata !2, metadata !"", metadata !2, i32 0, i64 0, i64 0, i64 0, i32 0, null, metadata !520, i32 0, null} ; [ DW_TAG_subroutine_type ]
!520 = metadata !{null, metadata !499, metadata !63}
!521 = metadata !{i32 458798, i32 0, metadata !485, metadata !"ap_int_base", metadata !"ap_int_base", metadata !"", metadata !20, i32 1360, metadata !522, i1 false, i1 false, i32 0, i32 0, null, i1 false} ; [ DW_TAG_subprogram ]
!522 = metadata !{i32 458773, metadata !2, metadata !"", metadata !2, i32 0, i64 0, i64 0, i64 0, i32 0, null, metadata !523, i32 0, null} ; [ DW_TAG_subroutine_type ]
!523 = metadata !{null, metadata !499, metadata !67}
!524 = metadata !{i32 458798, i32 0, metadata !485, metadata !"ap_int_base", metadata !"ap_int_base", metadata !"", metadata !20, i32 1361, metadata !525, i1 false, i1 false, i32 0, i32 0, null, i1 false} ; [ DW_TAG_subprogram ]
!525 = metadata !{i32 458773, metadata !2, metadata !"", metadata !2, i32 0, i64 0, i64 0, i64 0, i32 0, null, metadata !526, i32 0, null} ; [ DW_TAG_subroutine_type ]
!526 = metadata !{null, metadata !499, metadata !71}
!527 = metadata !{i32 458798, i32 0, metadata !485, metadata !"ap_int_base", metadata !"ap_int_base", metadata !"", metadata !20, i32 1362, metadata !528, i1 false, i1 false, i32 0, i32 0, null, i1 false} ; [ DW_TAG_subprogram ]
!528 = metadata !{i32 458773, metadata !2, metadata !"", metadata !2, i32 0, i64 0, i64 0, i64 0, i32 0, null, metadata !529, i32 0, null} ; [ DW_TAG_subroutine_type ]
!529 = metadata !{null, metadata !499, metadata !75}
!530 = metadata !{i32 458798, i32 0, metadata !485, metadata !"ap_int_base", metadata !"ap_int_base", metadata !"", metadata !20, i32 1363, metadata !531, i1 false, i1 false, i32 0, i32 0, null, i1 false} ; [ DW_TAG_subprogram ]
!531 = metadata !{i32 458773, metadata !2, metadata !"", metadata !2, i32 0, i64 0, i64 0, i64 0, i32 0, null, metadata !532, i32 0, null} ; [ DW_TAG_subroutine_type ]
!532 = metadata !{null, metadata !499, metadata !79}
!533 = metadata !{i32 458798, i32 0, metadata !485, metadata !"ap_int_base", metadata !"ap_int_base", metadata !"", metadata !20, i32 1364, metadata !534, i1 false, i1 false, i32 0, i32 0, null, i1 false} ; [ DW_TAG_subprogram ]
!534 = metadata !{i32 458773, metadata !2, metadata !"", metadata !2, i32 0, i64 0, i64 0, i64 0, i32 0, null, metadata !535, i32 0, null} ; [ DW_TAG_subroutine_type ]
!535 = metadata !{null, metadata !499, metadata !83}
!536 = metadata !{i32 458798, i32 0, metadata !485, metadata !"ap_int_base", metadata !"ap_int_base", metadata !"", metadata !20, i32 1365, metadata !537, i1 false, i1 false, i32 0, i32 0, null, i1 false} ; [ DW_TAG_subprogram ]
!537 = metadata !{i32 458773, metadata !2, metadata !"", metadata !2, i32 0, i64 0, i64 0, i64 0, i32 0, null, metadata !538, i32 0, null} ; [ DW_TAG_subroutine_type ]
!538 = metadata !{null, metadata !499, metadata !87}
!539 = metadata !{i32 458798, i32 0, metadata !485, metadata !"ap_int_base", metadata !"ap_int_base", metadata !"", metadata !20, i32 1392, metadata !540, i1 false, i1 false, i32 0, i32 0, null, i1 false} ; [ DW_TAG_subprogram ]
!540 = metadata !{i32 458773, metadata !2, metadata !"", metadata !2, i32 0, i64 0, i64 0, i64 0, i32 0, null, metadata !541, i32 0, null} ; [ DW_TAG_subroutine_type ]
!541 = metadata !{null, metadata !499, metadata !91}
!542 = metadata !{i32 458798, i32 0, metadata !485, metadata !"ap_int_base", metadata !"ap_int_base", metadata !"", metadata !20, i32 1398, metadata !543, i1 false, i1 false, i32 0, i32 0, null, i1 false} ; [ DW_TAG_subprogram ]
!543 = metadata !{i32 458773, metadata !2, metadata !"", metadata !2, i32 0, i64 0, i64 0, i64 0, i32 0, null, metadata !544, i32 0, null} ; [ DW_TAG_subroutine_type ]
!544 = metadata !{null, metadata !499, metadata !91, metadata !43}
!545 = metadata !{i32 458798, i32 0, metadata !485, metadata !"read", metadata !"read", metadata !"_ZNV11ap_int_baseILi64ELb0ELb1EE4readEv", metadata !20, i32 1418, metadata !546, i1 false, i1 false, i32 0, i32 0, null, i1 false} ; [ DW_TAG_subprogram ]
!546 = metadata !{i32 458773, metadata !2, metadata !"", metadata !2, i32 0, i64 0, i64 0, i64 0, i32 0, null, metadata !547, i32 0, null} ; [ DW_TAG_subroutine_type ]
!547 = metadata !{metadata !485, metadata !548}
!548 = metadata !{i32 458767, metadata !2, metadata !"", metadata !2, i32 0, i64 64, i64 64, i64 0, i32 64, metadata !549} ; [ DW_TAG_pointer_type ]
!549 = metadata !{i32 458805, metadata !2, metadata !"", metadata !2, i32 0, i64 64, i64 64, i64 0, i32 0, metadata !485} ; [ DW_TAG_volatile_type ]
!550 = metadata !{i32 458798, i32 0, metadata !485, metadata !"write", metadata !"write", metadata !"_ZNV11ap_int_baseILi64ELb0ELb1EE5writeERKS0_", metadata !20, i32 1424, metadata !551, i1 false, i1 false, i32 0, i32 0, null, i1 false} ; [ DW_TAG_subprogram ]
!551 = metadata !{i32 458773, metadata !2, metadata !"", metadata !2, i32 0, i64 0, i64 0, i64 0, i32 0, null, metadata !552, i32 0, null} ; [ DW_TAG_subroutine_type ]
!552 = metadata !{null, metadata !548, metadata !553}
!553 = metadata !{i32 458768, metadata !2, metadata !"", metadata !2, i32 0, i64 64, i64 64, i64 0, i32 0, metadata !554} ; [ DW_TAG_reference_type ]
!554 = metadata !{i32 458790, metadata !2, metadata !"", metadata !2, i32 0, i64 64, i64 64, i64 0, i32 0, metadata !485} ; [ DW_TAG_const_type ]
!555 = metadata !{i32 458798, i32 0, metadata !485, metadata !"operator=", metadata !"operator=", metadata !"_ZNV11ap_int_baseILi64ELb0ELb1EEaSERVKS0_", metadata !20, i32 1436, metadata !556, i1 false, i1 false, i32 0, i32 0, null, i1 false} ; [ DW_TAG_subprogram ]
!556 = metadata !{i32 458773, metadata !2, metadata !"", metadata !2, i32 0, i64 0, i64 0, i64 0, i32 0, null, metadata !557, i32 0, null} ; [ DW_TAG_subroutine_type ]
!557 = metadata !{null, metadata !548, metadata !558}
!558 = metadata !{i32 458768, metadata !2, metadata !"", metadata !2, i32 0, i64 64, i64 64, i64 0, i32 0, metadata !559} ; [ DW_TAG_reference_type ]
!559 = metadata !{i32 458790, metadata !2, metadata !"", metadata !2, i32 0, i64 64, i64 64, i64 0, i32 0, metadata !549} ; [ DW_TAG_const_type ]
!560 = metadata !{i32 458798, i32 0, metadata !485, metadata !"operator=", metadata !"operator=", metadata !"_ZNV11ap_int_baseILi64ELb0ELb1EEaSERKS0_", metadata !20, i32 1445, metadata !551, i1 false, i1 false, i32 0, i32 0, null, i1 false} ; [ DW_TAG_subprogram ]
!561 = metadata !{i32 458798, i32 0, metadata !485, metadata !"operator=", metadata !"operator=", metadata !"_ZN11ap_int_baseILi64ELb0ELb1EEaSERVKS0_", metadata !20, i32 1468, metadata !562, i1 false, i1 false, i32 0, i32 0, null, i1 false} ; [ DW_TAG_subprogram ]
!562 = metadata !{i32 458773, metadata !2, metadata !"", metadata !2, i32 0, i64 0, i64 0, i64 0, i32 0, null, metadata !563, i32 0, null} ; [ DW_TAG_subroutine_type ]
!563 = metadata !{metadata !564, metadata !499, metadata !558}
!564 = metadata !{i32 458768, metadata !2, metadata !"ap_int_base<64,false,true>", metadata !2, i32 0, i64 64, i64 64, i64 0, i32 0, metadata !485} ; [ DW_TAG_reference_type ]
!565 = metadata !{i32 458798, i32 0, metadata !485, metadata !"operator=", metadata !"operator=", metadata !"_ZN11ap_int_baseILi64ELb0ELb1EEaSERKS0_", metadata !20, i32 1473, metadata !566, i1 false, i1 false, i32 0, i32 0, null, i1 false} ; [ DW_TAG_subprogram ]
!566 = metadata !{i32 458773, metadata !2, metadata !"", metadata !2, i32 0, i64 0, i64 0, i64 0, i32 0, null, metadata !567, i32 0, null} ; [ DW_TAG_subroutine_type ]
!567 = metadata !{metadata !564, metadata !499, metadata !553}
!568 = metadata !{i32 458798, i32 0, metadata !485, metadata !"operator=", metadata !"operator=", metadata !"_ZN11ap_int_baseILi64ELb0ELb1EEaSEPKc", metadata !20, i32 1477, metadata !569, i1 false, i1 false, i32 0, i32 0, null, i1 false} ; [ DW_TAG_subprogram ]
!569 = metadata !{i32 458773, metadata !2, metadata !"", metadata !2, i32 0, i64 0, i64 0, i64 0, i32 0, null, metadata !570, i32 0, null} ; [ DW_TAG_subroutine_type ]
!570 = metadata !{metadata !564, metadata !499, metadata !91}
!571 = metadata !{i32 458798, i32 0, metadata !485, metadata !"set", metadata !"set", metadata !"_ZN11ap_int_baseILi64ELb0ELb1EE3setEPKca", metadata !20, i32 1484, metadata !572, i1 false, i1 false, i32 0, i32 0, null, i1 false} ; [ DW_TAG_subprogram ]
!572 = metadata !{i32 458773, metadata !2, metadata !"", metadata !2, i32 0, i64 0, i64 0, i64 0, i32 0, null, metadata !573, i32 0, null} ; [ DW_TAG_subroutine_type ]
!573 = metadata !{metadata !564, metadata !499, metadata !91, metadata !43}
!574 = metadata !{i32 458798, i32 0, metadata !485, metadata !"operator=", metadata !"operator=", metadata !"_ZN11ap_int_baseILi64ELb0ELb1EEaSEy", metadata !20, i32 1492, metadata !575, i1 false, i1 false, i32 0, i32 0, null, i1 false} ; [ DW_TAG_subprogram ]
!575 = metadata !{i32 458773, metadata !2, metadata !"", metadata !2, i32 0, i64 0, i64 0, i64 0, i32 0, null, metadata !576, i32 0, null} ; [ DW_TAG_subroutine_type ]
!576 = metadata !{metadata !564, metadata !499, metadata !79}
!577 = metadata !{i32 458798, i32 0, metadata !485, metadata !"operator=", metadata !"operator=", metadata !"_ZN11ap_int_baseILi64ELb0ELb1EEaSEx", metadata !20, i32 1497, metadata !578, i1 false, i1 false, i32 0, i32 0, null, i1 false} ; [ DW_TAG_subprogram ]
!578 = metadata !{i32 458773, metadata !2, metadata !"", metadata !2, i32 0, i64 0, i64 0, i64 0, i32 0, null, metadata !579, i32 0, null} ; [ DW_TAG_subroutine_type ]
!579 = metadata !{metadata !564, metadata !499, metadata !75}
!580 = metadata !{i32 458798, i32 0, metadata !485, metadata !"operator ap_ulong", metadata !"operator ap_ulong", metadata !"_ZNK11ap_int_baseILi64ELb0ELb1EEcvyEv", metadata !20, i32 1538, metadata !581, i1 false, i1 false, i32 0, i32 0, null, i1 false} ; [ DW_TAG_subprogram ]
!581 = metadata !{i32 458773, metadata !2, metadata !"", metadata !2, i32 0, i64 0, i64 0, i64 0, i32 0, null, metadata !582, i32 0, null} ; [ DW_TAG_subroutine_type ]
!582 = metadata !{metadata !135, metadata !583}
!583 = metadata !{i32 458767, metadata !2, metadata !"", metadata !2, i32 0, i64 64, i64 64, i64 0, i32 64, metadata !554} ; [ DW_TAG_pointer_type ]
!584 = metadata !{i32 458798, i32 0, metadata !485, metadata !"to_bool", metadata !"to_bool", metadata !"_ZNK11ap_int_baseILi64ELb0ELb1EE7to_boolEv", metadata !20, i32 1544, metadata !585, i1 false, i1 false, i32 0, i32 0, null, i1 false} ; [ DW_TAG_subprogram ]
!585 = metadata !{i32 458773, metadata !2, metadata !"", metadata !2, i32 0, i64 0, i64 0, i64 0, i32 0, null, metadata !586, i32 0, null} ; [ DW_TAG_subroutine_type ]
!586 = metadata !{metadata !39, metadata !583}
!587 = metadata !{i32 458798, i32 0, metadata !485, metadata !"to_int", metadata !"to_int", metadata !"_ZNK11ap_int_baseILi64ELb0ELb1EE6to_intEv", metadata !20, i32 1545, metadata !588, i1 false, i1 false, i32 0, i32 0, null, i1 false} ; [ DW_TAG_subprogram ]
!588 = metadata !{i32 458773, metadata !2, metadata !"", metadata !2, i32 0, i64 0, i64 0, i64 0, i32 0, null, metadata !589, i32 0, null} ; [ DW_TAG_subroutine_type ]
!589 = metadata !{metadata !59, metadata !583}
!590 = metadata !{i32 458798, i32 0, metadata !485, metadata !"to_uint", metadata !"to_uint", metadata !"_ZNK11ap_int_baseILi64ELb0ELb1EE7to_uintEv", metadata !20, i32 1546, metadata !591, i1 false, i1 false, i32 0, i32 0, null, i1 false} ; [ DW_TAG_subprogram ]
!591 = metadata !{i32 458773, metadata !2, metadata !"", metadata !2, i32 0, i64 0, i64 0, i64 0, i32 0, null, metadata !592, i32 0, null} ; [ DW_TAG_subroutine_type ]
!592 = metadata !{metadata !63, metadata !583}
!593 = metadata !{i32 458798, i32 0, metadata !485, metadata !"to_long", metadata !"to_long", metadata !"_ZNK11ap_int_baseILi64ELb0ELb1EE7to_longEv", metadata !20, i32 1547, metadata !594, i1 false, i1 false, i32 0, i32 0, null, i1 false} ; [ DW_TAG_subprogram ]
!594 = metadata !{i32 458773, metadata !2, metadata !"", metadata !2, i32 0, i64 0, i64 0, i64 0, i32 0, null, metadata !595, i32 0, null} ; [ DW_TAG_subroutine_type ]
!595 = metadata !{metadata !67, metadata !583}
!596 = metadata !{i32 458798, i32 0, metadata !485, metadata !"to_ulong", metadata !"to_ulong", metadata !"_ZNK11ap_int_baseILi64ELb0ELb1EE8to_ulongEv", metadata !20, i32 1548, metadata !597, i1 false, i1 false, i32 0, i32 0, null, i1 false} ; [ DW_TAG_subprogram ]
!597 = metadata !{i32 458773, metadata !2, metadata !"", metadata !2, i32 0, i64 0, i64 0, i64 0, i32 0, null, metadata !598, i32 0, null} ; [ DW_TAG_subroutine_type ]
!598 = metadata !{metadata !71, metadata !583}
!599 = metadata !{i32 458798, i32 0, metadata !485, metadata !"to_int64", metadata !"to_int64", metadata !"_ZNK11ap_int_baseILi64ELb0ELb1EE8to_int64Ev", metadata !20, i32 1549, metadata !600, i1 false, i1 false, i32 0, i32 0, null, i1 false} ; [ DW_TAG_subprogram ]
!600 = metadata !{i32 458773, metadata !2, metadata !"", metadata !2, i32 0, i64 0, i64 0, i64 0, i32 0, null, metadata !601, i32 0, null} ; [ DW_TAG_subroutine_type ]
!601 = metadata !{metadata !156, metadata !583}
!602 = metadata !{i32 458798, i32 0, metadata !485, metadata !"to_uint64", metadata !"to_uint64", metadata !"_ZNK11ap_int_baseILi64ELb0ELb1EE9to_uint64Ev", metadata !20, i32 1550, metadata !581, i1 false, i1 false, i32 0, i32 0, null, i1 false} ; [ DW_TAG_subprogram ]
!603 = metadata !{i32 458798, i32 0, metadata !485, metadata !"to_double", metadata !"to_double", metadata !"_ZNK11ap_int_baseILi64ELb0ELb1EE9to_doubleEv", metadata !20, i32 1551, metadata !604, i1 false, i1 false, i32 0, i32 0, null, i1 false} ; [ DW_TAG_subprogram ]
!604 = metadata !{i32 458773, metadata !2, metadata !"", metadata !2, i32 0, i64 0, i64 0, i64 0, i32 0, null, metadata !605, i32 0, null} ; [ DW_TAG_subroutine_type ]
!605 = metadata !{metadata !87, metadata !583}
!606 = metadata !{i32 458798, i32 0, metadata !485, metadata !"length", metadata !"length", metadata !"_ZNK11ap_int_baseILi64ELb0ELb1EE6lengthEv", metadata !20, i32 1564, metadata !588, i1 false, i1 false, i32 0, i32 0, null, i1 false} ; [ DW_TAG_subprogram ]
!607 = metadata !{i32 458798, i32 0, metadata !485, metadata !"length", metadata !"length", metadata !"_ZNVK11ap_int_baseILi64ELb0ELb1EE6lengthEv", metadata !20, i32 1565, metadata !608, i1 false, i1 false, i32 0, i32 0, null, i1 false} ; [ DW_TAG_subprogram ]
!608 = metadata !{i32 458773, metadata !2, metadata !"", metadata !2, i32 0, i64 0, i64 0, i64 0, i32 0, null, metadata !609, i32 0, null} ; [ DW_TAG_subroutine_type ]
!609 = metadata !{metadata !59, metadata !610}
!610 = metadata !{i32 458767, metadata !2, metadata !"", metadata !2, i32 0, i64 64, i64 64, i64 0, i32 64, metadata !559} ; [ DW_TAG_pointer_type ]
!611 = metadata !{i32 458798, i32 0, metadata !485, metadata !"reverse", metadata !"reverse", metadata !"_ZN11ap_int_baseILi64ELb0ELb1EE7reverseEv", metadata !20, i32 1570, metadata !612, i1 false, i1 false, i32 0, i32 0, null, i1 false} ; [ DW_TAG_subprogram ]
!612 = metadata !{i32 458773, metadata !2, metadata !"", metadata !2, i32 0, i64 0, i64 0, i64 0, i32 0, null, metadata !613, i32 0, null} ; [ DW_TAG_subroutine_type ]
!613 = metadata !{metadata !564, metadata !499}
!614 = metadata !{i32 458798, i32 0, metadata !485, metadata !"iszero", metadata !"iszero", metadata !"_ZNK11ap_int_baseILi64ELb0ELb1EE6iszeroEv", metadata !20, i32 1576, metadata !585, i1 false, i1 false, i32 0, i32 0, null, i1 false} ; [ DW_TAG_subprogram ]
!615 = metadata !{i32 458798, i32 0, metadata !485, metadata !"is_zero", metadata !"is_zero", metadata !"_ZNK11ap_int_baseILi64ELb0ELb1EE7is_zeroEv", metadata !20, i32 1581, metadata !585, i1 false, i1 false, i32 0, i32 0, null, i1 false} ; [ DW_TAG_subprogram ]
!616 = metadata !{i32 458798, i32 0, metadata !485, metadata !"sign", metadata !"sign", metadata !"_ZNK11ap_int_baseILi64ELb0ELb1EE4signEv", metadata !20, i32 1586, metadata !585, i1 false, i1 false, i32 0, i32 0, null, i1 false} ; [ DW_TAG_subprogram ]
!617 = metadata !{i32 458798, i32 0, metadata !485, metadata !"clear", metadata !"clear", metadata !"_ZN11ap_int_baseILi64ELb0ELb1EE5clearEi", metadata !20, i32 1594, metadata !516, i1 false, i1 false, i32 0, i32 0, null, i1 false} ; [ DW_TAG_subprogram ]
!618 = metadata !{i32 458798, i32 0, metadata !485, metadata !"invert", metadata !"invert", metadata !"_ZN11ap_int_baseILi64ELb0ELb1EE6invertEi", metadata !20, i32 1600, metadata !516, i1 false, i1 false, i32 0, i32 0, null, i1 false} ; [ DW_TAG_subprogram ]
!619 = metadata !{i32 458798, i32 0, metadata !485, metadata !"test", metadata !"test", metadata !"_ZNK11ap_int_baseILi64ELb0ELb1EE4testEi", metadata !20, i32 1608, metadata !620, i1 false, i1 false, i32 0, i32 0, null, i1 false} ; [ DW_TAG_subprogram ]
!620 = metadata !{i32 458773, metadata !2, metadata !"", metadata !2, i32 0, i64 0, i64 0, i64 0, i32 0, null, metadata !621, i32 0, null} ; [ DW_TAG_subroutine_type ]
!621 = metadata !{metadata !39, metadata !583, metadata !59}
!622 = metadata !{i32 458798, i32 0, metadata !485, metadata !"set", metadata !"set", metadata !"_ZN11ap_int_baseILi64ELb0ELb1EE3setEi", metadata !20, i32 1614, metadata !516, i1 false, i1 false, i32 0, i32 0, null, i1 false} ; [ DW_TAG_subprogram ]
!623 = metadata !{i32 458798, i32 0, metadata !485, metadata !"set", metadata !"set", metadata !"_ZN11ap_int_baseILi64ELb0ELb1EE3setEib", metadata !20, i32 1620, metadata !624, i1 false, i1 false, i32 0, i32 0, null, i1 false} ; [ DW_TAG_subprogram ]
!624 = metadata !{i32 458773, metadata !2, metadata !"", metadata !2, i32 0, i64 0, i64 0, i64 0, i32 0, null, metadata !625, i32 0, null} ; [ DW_TAG_subroutine_type ]
!625 = metadata !{null, metadata !499, metadata !59, metadata !39}
!626 = metadata !{i32 458798, i32 0, metadata !485, metadata !"lrotate", metadata !"lrotate", metadata !"_ZN11ap_int_baseILi64ELb0ELb1EE7lrotateEi", metadata !20, i32 1627, metadata !516, i1 false, i1 false, i32 0, i32 0, null, i1 false} ; [ DW_TAG_subprogram ]
!627 = metadata !{i32 458798, i32 0, metadata !485, metadata !"rrotate", metadata !"rrotate", metadata !"_ZN11ap_int_baseILi64ELb0ELb1EE7rrotateEi", metadata !20, i32 1636, metadata !516, i1 false, i1 false, i32 0, i32 0, null, i1 false} ; [ DW_TAG_subprogram ]
!628 = metadata !{i32 458798, i32 0, metadata !485, metadata !"set_bit", metadata !"set_bit", metadata !"_ZN11ap_int_baseILi64ELb0ELb1EE7set_bitEib", metadata !20, i32 1644, metadata !624, i1 false, i1 false, i32 0, i32 0, null, i1 false} ; [ DW_TAG_subprogram ]
!629 = metadata !{i32 458798, i32 0, metadata !485, metadata !"get_bit", metadata !"get_bit", metadata !"_ZNK11ap_int_baseILi64ELb0ELb1EE7get_bitEi", metadata !20, i32 1649, metadata !620, i1 false, i1 false, i32 0, i32 0, null, i1 false} ; [ DW_TAG_subprogram ]
!630 = metadata !{i32 458798, i32 0, metadata !485, metadata !"b_not", metadata !"b_not", metadata !"_ZN11ap_int_baseILi64ELb0ELb1EE5b_notEv", metadata !20, i32 1654, metadata !497, i1 false, i1 false, i32 0, i32 0, null, i1 false} ; [ DW_TAG_subprogram ]
!631 = metadata !{i32 458798, i32 0, metadata !485, metadata !"countLeadingZeros", metadata !"countLeadingZeros", metadata !"_ZN11ap_int_baseILi64ELb0ELb1EE17countLeadingZerosEv", metadata !20, i32 1661, metadata !632, i1 false, i1 false, i32 0, i32 0, null, i1 false} ; [ DW_TAG_subprogram ]
!632 = metadata !{i32 458773, metadata !2, metadata !"", metadata !2, i32 0, i64 0, i64 0, i64 0, i32 0, null, metadata !633, i32 0, null} ; [ DW_TAG_subroutine_type ]
!633 = metadata !{metadata !59, metadata !499}
!634 = metadata !{i32 458798, i32 0, metadata !485, metadata !"operator++", metadata !"operator++", metadata !"_ZN11ap_int_baseILi64ELb0ELb1EEppEv", metadata !20, i32 1718, metadata !612, i1 false, i1 false, i32 0, i32 0, null, i1 false} ; [ DW_TAG_subprogram ]
!635 = metadata !{i32 458798, i32 0, metadata !485, metadata !"operator--", metadata !"operator--", metadata !"_ZN11ap_int_baseILi64ELb0ELb1EEmmEv", metadata !20, i32 1722, metadata !612, i1 false, i1 false, i32 0, i32 0, null, i1 false} ; [ DW_TAG_subprogram ]
!636 = metadata !{i32 458798, i32 0, metadata !485, metadata !"operator++", metadata !"operator++", metadata !"_ZN11ap_int_baseILi64ELb0ELb1EEppEi", metadata !20, i32 1730, metadata !637, i1 false, i1 false, i32 0, i32 0, null, i1 false} ; [ DW_TAG_subprogram ]
!637 = metadata !{i32 458773, metadata !2, metadata !"", metadata !2, i32 0, i64 0, i64 0, i64 0, i32 0, null, metadata !638, i32 0, null} ; [ DW_TAG_subroutine_type ]
!638 = metadata !{metadata !554, metadata !499, metadata !59}
!639 = metadata !{i32 458798, i32 0, metadata !485, metadata !"operator--", metadata !"operator--", metadata !"_ZN11ap_int_baseILi64ELb0ELb1EEmmEi", metadata !20, i32 1735, metadata !637, i1 false, i1 false, i32 0, i32 0, null, i1 false} ; [ DW_TAG_subprogram ]
!640 = metadata !{i32 458798, i32 0, metadata !485, metadata !"operator+", metadata !"operator+", metadata !"_ZNK11ap_int_baseILi64ELb0ELb1EEpsEv", metadata !20, i32 1744, metadata !641, i1 false, i1 false, i32 0, i32 0, null, i1 false} ; [ DW_TAG_subprogram ]
!641 = metadata !{i32 458773, metadata !2, metadata !"", metadata !2, i32 0, i64 0, i64 0, i64 0, i32 0, null, metadata !642, i32 0, null} ; [ DW_TAG_subroutine_type ]
!642 = metadata !{metadata !485, metadata !583}
!643 = metadata !{i32 458798, i32 0, metadata !485, metadata !"operator!", metadata !"operator!", metadata !"_ZNK11ap_int_baseILi64ELb0ELb1EEntEv", metadata !20, i32 1750, metadata !585, i1 false, i1 false, i32 0, i32 0, null, i1 false} ; [ DW_TAG_subprogram ]
!644 = metadata !{i32 458798, i32 0, metadata !485, metadata !"range", metadata !"range", metadata !"_ZN11ap_int_baseILi64ELb0ELb1EE5rangeEii", metadata !20, i32 1877, metadata !645, i1 false, i1 false, i32 0, i32 0, null, i1 false} ; [ DW_TAG_subprogram ]
!645 = metadata !{i32 458773, metadata !2, metadata !"", metadata !2, i32 0, i64 0, i64 0, i64 0, i32 0, null, metadata !646, i32 0, null} ; [ DW_TAG_subroutine_type ]
!646 = metadata !{metadata !647, metadata !499, metadata !59, metadata !59}
!647 = metadata !{i32 458771, metadata !2, metadata !"ap_range_ref<64,false>", metadata !20, i32 872, i64 128, i64 64, i64 0, i32 0, null, metadata !648, i32 0, null} ; [ DW_TAG_structure_type ]
!648 = metadata !{metadata !649, metadata !650, metadata !651, metadata !652, metadata !658, metadata !662, metadata !666, metadata !669, metadata !673, metadata !676, metadata !680, metadata !683, metadata !684, metadata !687, metadata !690, metadata !693, metadata !696, metadata !699, metadata !702, metadata !703}
!649 = metadata !{i32 458765, metadata !647, metadata !"d_bv", metadata !20, i32 873, i64 64, i64 64, i64 0, i32 0, metadata !564} ; [ DW_TAG_member ]
!650 = metadata !{i32 458765, metadata !647, metadata !"l_index", metadata !20, i32 874, i64 32, i64 32, i64 64, i32 0, metadata !59} ; [ DW_TAG_member ]
!651 = metadata !{i32 458765, metadata !647, metadata !"h_index", metadata !20, i32 875, i64 32, i64 32, i64 96, i32 0, metadata !59} ; [ DW_TAG_member ]
!652 = metadata !{i32 458798, i32 0, metadata !647, metadata !"ap_range_ref", metadata !"ap_range_ref", metadata !"", metadata !20, i32 878, metadata !653, i1 false, i1 false, i32 0, i32 0, null, i1 false} ; [ DW_TAG_subprogram ]
!653 = metadata !{i32 458773, metadata !2, metadata !"", metadata !2, i32 0, i64 0, i64 0, i64 0, i32 0, null, metadata !654, i32 0, null} ; [ DW_TAG_subroutine_type ]
!654 = metadata !{null, metadata !655, metadata !656}
!655 = metadata !{i32 458767, metadata !2, metadata !"", metadata !2, i32 0, i64 64, i64 64, i64 0, i32 64, metadata !647} ; [ DW_TAG_pointer_type ]
!656 = metadata !{i32 458768, metadata !2, metadata !"", metadata !2, i32 0, i64 64, i64 64, i64 0, i32 0, metadata !657} ; [ DW_TAG_reference_type ]
!657 = metadata !{i32 458790, metadata !2, metadata !"", metadata !2, i32 0, i64 128, i64 64, i64 0, i32 0, metadata !647} ; [ DW_TAG_const_type ]
!658 = metadata !{i32 458798, i32 0, metadata !647, metadata !"ap_range_ref", metadata !"ap_range_ref", metadata !"", metadata !20, i32 881, metadata !659, i1 false, i1 false, i32 0, i32 0, null, i1 false} ; [ DW_TAG_subprogram ]
!659 = metadata !{i32 458773, metadata !2, metadata !"", metadata !2, i32 0, i64 0, i64 0, i64 0, i32 0, null, metadata !660, i32 0, null} ; [ DW_TAG_subroutine_type ]
!660 = metadata !{null, metadata !655, metadata !661, metadata !59, metadata !59}
!661 = metadata !{i32 458767, metadata !2, metadata !"", metadata !2, i32 0, i64 64, i64 64, i64 0, i32 0, metadata !485} ; [ DW_TAG_pointer_type ]
!662 = metadata !{i32 458798, i32 0, metadata !647, metadata !"operator ap_int_base<64, false, true>", metadata !"operator ap_int_base<64, false, true>", metadata !"_ZNK12ap_range_refILi64ELb0EEcv11ap_int_baseILi64ELb0ELb1EEEv", metadata !20, i32 886, metadata !663, i1 false, i1 false, i32 0, i32 0, null, i1 false} ; [ DW_TAG_subprogram ]
!663 = metadata !{i32 458773, metadata !2, metadata !"", metadata !2, i32 0, i64 0, i64 0, i64 0, i32 0, null, metadata !664, i32 0, null} ; [ DW_TAG_subroutine_type ]
!664 = metadata !{metadata !485, metadata !665}
!665 = metadata !{i32 458767, metadata !2, metadata !"", metadata !2, i32 0, i64 64, i64 64, i64 0, i32 64, metadata !657} ; [ DW_TAG_pointer_type ]
!666 = metadata !{i32 458798, i32 0, metadata !647, metadata !"operator long long unsigned int", metadata !"operator long long unsigned int", metadata !"_ZNK12ap_range_refILi64ELb0EEcvyEv", metadata !20, i32 892, metadata !667, i1 false, i1 true, i32 0, i32 0, null, i1 false} ; [ DW_TAG_subprogram ]
!667 = metadata !{i32 458773, metadata !2, metadata !"", metadata !2, i32 0, i64 0, i64 0, i64 0, i32 0, null, metadata !668, i32 0, null} ; [ DW_TAG_subroutine_type ]
!668 = metadata !{metadata !79, metadata !665}
!669 = metadata !{i32 458798, i32 0, metadata !647, metadata !"operator=", metadata !"operator=", metadata !"_ZN12ap_range_refILi64ELb0EEaSEy", metadata !20, i32 896, metadata !670, i1 false, i1 true, i32 0, i32 0, null, i1 false} ; [ DW_TAG_subprogram ]
!670 = metadata !{i32 458773, metadata !2, metadata !"", metadata !2, i32 0, i64 0, i64 0, i64 0, i32 0, null, metadata !671, i32 0, null} ; [ DW_TAG_subroutine_type ]
!671 = metadata !{metadata !672, metadata !655, metadata !79}
!672 = metadata !{i32 458768, metadata !2, metadata !"ap_range_ref<64,false>", metadata !2, i32 0, i64 64, i64 64, i64 0, i32 0, metadata !647} ; [ DW_TAG_reference_type ]
!673 = metadata !{i32 458798, i32 0, metadata !647, metadata !"operator=", metadata !"operator=", metadata !"_ZN12ap_range_refILi64ELb0EEaSERKS0_", metadata !20, i32 914, metadata !674, i1 false, i1 false, i32 0, i32 0, null, i1 false} ; [ DW_TAG_subprogram ]
!674 = metadata !{i32 458773, metadata !2, metadata !"", metadata !2, i32 0, i64 0, i64 0, i64 0, i32 0, null, metadata !675, i32 0, null} ; [ DW_TAG_subroutine_type ]
!675 = metadata !{metadata !672, metadata !655, metadata !656}
!676 = metadata !{i32 458798, i32 0, metadata !647, metadata !"operator,", metadata !"operator,", metadata !"_ZN12ap_range_refILi64ELb0EEcmER11ap_int_baseILi64ELb0ELb1EE", metadata !20, i32 969, metadata !677, i1 false, i1 false, i32 0, i32 0, null, i1 false} ; [ DW_TAG_subprogram ]
!677 = metadata !{i32 458773, metadata !2, metadata !"", metadata !2, i32 0, i64 0, i64 0, i64 0, i32 0, null, metadata !678, i32 0, null} ; [ DW_TAG_subroutine_type ]
!678 = metadata !{metadata !679, metadata !655, metadata !564}
!679 = metadata !{i32 458771, metadata !2, metadata !"ap_concat_ref<64,ap_range_ref<64, false>,64,ap_int_base<64, false, true> >", metadata !20, i32 635, i64 0, i64 0, i64 0, i32 4, null, null, i32 0, null} ; [ DW_TAG_structure_type ]
!680 = metadata !{i32 458798, i32 0, metadata !647, metadata !"length", metadata !"length", metadata !"_ZNK12ap_range_refILi64ELb0EE6lengthEv", metadata !20, i32 1078, metadata !681, i1 false, i1 false, i32 0, i32 0, null, i1 false} ; [ DW_TAG_subprogram ]
!681 = metadata !{i32 458773, metadata !2, metadata !"", metadata !2, i32 0, i64 0, i64 0, i64 0, i32 0, null, metadata !682, i32 0, null} ; [ DW_TAG_subroutine_type ]
!682 = metadata !{metadata !59, metadata !665}
!683 = metadata !{i32 458798, i32 0, metadata !647, metadata !"to_int", metadata !"to_int", metadata !"_ZNK12ap_range_refILi64ELb0EE6to_intEv", metadata !20, i32 1082, metadata !681, i1 false, i1 false, i32 0, i32 0, null, i1 false} ; [ DW_TAG_subprogram ]
!684 = metadata !{i32 458798, i32 0, metadata !647, metadata !"to_uint", metadata !"to_uint", metadata !"_ZNK12ap_range_refILi64ELb0EE7to_uintEv", metadata !20, i32 1085, metadata !685, i1 false, i1 false, i32 0, i32 0, null, i1 false} ; [ DW_TAG_subprogram ]
!685 = metadata !{i32 458773, metadata !2, metadata !"", metadata !2, i32 0, i64 0, i64 0, i64 0, i32 0, null, metadata !686, i32 0, null} ; [ DW_TAG_subroutine_type ]
!686 = metadata !{metadata !63, metadata !665}
!687 = metadata !{i32 458798, i32 0, metadata !647, metadata !"to_long", metadata !"to_long", metadata !"_ZNK12ap_range_refILi64ELb0EE7to_longEv", metadata !20, i32 1088, metadata !688, i1 false, i1 false, i32 0, i32 0, null, i1 false} ; [ DW_TAG_subprogram ]
!688 = metadata !{i32 458773, metadata !2, metadata !"", metadata !2, i32 0, i64 0, i64 0, i64 0, i32 0, null, metadata !689, i32 0, null} ; [ DW_TAG_subroutine_type ]
!689 = metadata !{metadata !67, metadata !665}
!690 = metadata !{i32 458798, i32 0, metadata !647, metadata !"to_ulong", metadata !"to_ulong", metadata !"_ZNK12ap_range_refILi64ELb0EE8to_ulongEv", metadata !20, i32 1091, metadata !691, i1 false, i1 false, i32 0, i32 0, null, i1 false} ; [ DW_TAG_subprogram ]
!691 = metadata !{i32 458773, metadata !2, metadata !"", metadata !2, i32 0, i64 0, i64 0, i64 0, i32 0, null, metadata !692, i32 0, null} ; [ DW_TAG_subroutine_type ]
!692 = metadata !{metadata !71, metadata !665}
!693 = metadata !{i32 458798, i32 0, metadata !647, metadata !"to_int64", metadata !"to_int64", metadata !"_ZNK12ap_range_refILi64ELb0EE8to_int64Ev", metadata !20, i32 1094, metadata !694, i1 false, i1 false, i32 0, i32 0, null, i1 false} ; [ DW_TAG_subprogram ]
!694 = metadata !{i32 458773, metadata !2, metadata !"", metadata !2, i32 0, i64 0, i64 0, i64 0, i32 0, null, metadata !695, i32 0, null} ; [ DW_TAG_subroutine_type ]
!695 = metadata !{metadata !156, metadata !665}
!696 = metadata !{i32 458798, i32 0, metadata !647, metadata !"to_uint64", metadata !"to_uint64", metadata !"_ZNK12ap_range_refILi64ELb0EE9to_uint64Ev", metadata !20, i32 1097, metadata !697, i1 false, i1 true, i32 0, i32 0, null, i1 false} ; [ DW_TAG_subprogram ]
!697 = metadata !{i32 458773, metadata !2, metadata !"", metadata !2, i32 0, i64 0, i64 0, i64 0, i32 0, null, metadata !698, i32 0, null} ; [ DW_TAG_subroutine_type ]
!698 = metadata !{metadata !135, metadata !665}
!699 = metadata !{i32 458798, i32 0, metadata !647, metadata !"and_reduce", metadata !"and_reduce", metadata !"_ZNK12ap_range_refILi64ELb0EE10and_reduceEv", metadata !20, i32 1100, metadata !700, i1 false, i1 false, i32 0, i32 0, null, i1 false} ; [ DW_TAG_subprogram ]
!700 = metadata !{i32 458773, metadata !2, metadata !"", metadata !2, i32 0, i64 0, i64 0, i64 0, i32 0, null, metadata !701, i32 0, null} ; [ DW_TAG_subroutine_type ]
!701 = metadata !{metadata !39, metadata !665}
!702 = metadata !{i32 458798, i32 0, metadata !647, metadata !"or_reduce", metadata !"or_reduce", metadata !"_ZNK12ap_range_refILi64ELb0EE9or_reduceEv", metadata !20, i32 1103, metadata !700, i1 false, i1 false, i32 0, i32 0, null, i1 false} ; [ DW_TAG_subprogram ]
!703 = metadata !{i32 458798, i32 0, metadata !647, metadata !"xor_reduce", metadata !"xor_reduce", metadata !"_ZNK12ap_range_refILi64ELb0EE10xor_reduceEv", metadata !20, i32 1106, metadata !700, i1 false, i1 false, i32 0, i32 0, null, i1 false} ; [ DW_TAG_subprogram ]
!704 = metadata !{i32 458798, i32 0, metadata !485, metadata !"operator()", metadata !"operator()", metadata !"_ZN11ap_int_baseILi64ELb0ELb1EEclEii", metadata !20, i32 1883, metadata !645, i1 false, i1 true, i32 0, i32 0, null, i1 false} ; [ DW_TAG_subprogram ]
!705 = metadata !{i32 458798, i32 0, metadata !485, metadata !"range", metadata !"range", metadata !"_ZNK11ap_int_baseILi64ELb0ELb1EE5rangeEii", metadata !20, i32 1889, metadata !706, i1 false, i1 false, i32 0, i32 0, null, i1 false} ; [ DW_TAG_subprogram ]
!706 = metadata !{i32 458773, metadata !2, metadata !"", metadata !2, i32 0, i64 0, i64 0, i64 0, i32 0, null, metadata !707, i32 0, null} ; [ DW_TAG_subroutine_type ]
!707 = metadata !{metadata !647, metadata !583, metadata !59, metadata !59}
!708 = metadata !{i32 458798, i32 0, metadata !485, metadata !"operator()", metadata !"operator()", metadata !"_ZNK11ap_int_baseILi64ELb0ELb1EEclEii", metadata !20, i32 1895, metadata !706, i1 false, i1 false, i32 0, i32 0, null, i1 false} ; [ DW_TAG_subprogram ]
!709 = metadata !{i32 458798, i32 0, metadata !485, metadata !"operator[]", metadata !"operator[]", metadata !"_ZN11ap_int_baseILi64ELb0ELb1EEixEi", metadata !20, i32 1914, metadata !710, i1 false, i1 false, i32 0, i32 0, null, i1 false} ; [ DW_TAG_subprogram ]
!710 = metadata !{i32 458773, metadata !2, metadata !"", metadata !2, i32 0, i64 0, i64 0, i64 0, i32 0, null, metadata !711, i32 0, null} ; [ DW_TAG_subroutine_type ]
!711 = metadata !{metadata !712, metadata !499, metadata !59}
!712 = metadata !{i32 458771, metadata !2, metadata !"ap_bit_ref<64,false>", metadata !20, i32 1116, i64 128, i64 64, i64 0, i32 0, null, metadata !713, i32 0, null} ; [ DW_TAG_structure_type ]
!713 = metadata !{metadata !714, metadata !715, metadata !716, metadata !722, metadata !725, metadata !729, metadata !730, metadata !734, metadata !737, metadata !738, metadata !741, metadata !742}
!714 = metadata !{i32 458765, metadata !712, metadata !"d_bv", metadata !20, i32 1117, i64 64, i64 64, i64 0, i32 0, metadata !564} ; [ DW_TAG_member ]
!715 = metadata !{i32 458765, metadata !712, metadata !"d_index", metadata !20, i32 1118, i64 32, i64 32, i64 64, i32 0, metadata !59} ; [ DW_TAG_member ]
!716 = metadata !{i32 458798, i32 0, metadata !712, metadata !"ap_bit_ref", metadata !"ap_bit_ref", metadata !"", metadata !20, i32 1121, metadata !717, i1 false, i1 false, i32 0, i32 0, null, i1 false} ; [ DW_TAG_subprogram ]
!717 = metadata !{i32 458773, metadata !2, metadata !"", metadata !2, i32 0, i64 0, i64 0, i64 0, i32 0, null, metadata !718, i32 0, null} ; [ DW_TAG_subroutine_type ]
!718 = metadata !{null, metadata !719, metadata !720}
!719 = metadata !{i32 458767, metadata !2, metadata !"", metadata !2, i32 0, i64 64, i64 64, i64 0, i32 64, metadata !712} ; [ DW_TAG_pointer_type ]
!720 = metadata !{i32 458768, metadata !2, metadata !"", metadata !2, i32 0, i64 64, i64 64, i64 0, i32 0, metadata !721} ; [ DW_TAG_reference_type ]
!721 = metadata !{i32 458790, metadata !2, metadata !"", metadata !2, i32 0, i64 128, i64 64, i64 0, i32 0, metadata !712} ; [ DW_TAG_const_type ]
!722 = metadata !{i32 458798, i32 0, metadata !712, metadata !"ap_bit_ref", metadata !"ap_bit_ref", metadata !"", metadata !20, i32 1124, metadata !723, i1 false, i1 false, i32 0, i32 0, null, i1 false} ; [ DW_TAG_subprogram ]
!723 = metadata !{i32 458773, metadata !2, metadata !"", metadata !2, i32 0, i64 0, i64 0, i64 0, i32 0, null, metadata !724, i32 0, null} ; [ DW_TAG_subroutine_type ]
!724 = metadata !{null, metadata !719, metadata !661, metadata !59}
!725 = metadata !{i32 458798, i32 0, metadata !712, metadata !"operator bool", metadata !"operator bool", metadata !"_ZNK10ap_bit_refILi64ELb0EEcvbEv", metadata !20, i32 1126, metadata !726, i1 false, i1 false, i32 0, i32 0, null, i1 false} ; [ DW_TAG_subprogram ]
!726 = metadata !{i32 458773, metadata !2, metadata !"", metadata !2, i32 0, i64 0, i64 0, i64 0, i32 0, null, metadata !727, i32 0, null} ; [ DW_TAG_subroutine_type ]
!727 = metadata !{metadata !39, metadata !728}
!728 = metadata !{i32 458767, metadata !2, metadata !"", metadata !2, i32 0, i64 64, i64 64, i64 0, i32 64, metadata !721} ; [ DW_TAG_pointer_type ]
!729 = metadata !{i32 458798, i32 0, metadata !712, metadata !"to_bool", metadata !"to_bool", metadata !"_ZNK10ap_bit_refILi64ELb0EE7to_boolEv", metadata !20, i32 1127, metadata !726, i1 false, i1 false, i32 0, i32 0, null, i1 false} ; [ DW_TAG_subprogram ]
!730 = metadata !{i32 458798, i32 0, metadata !712, metadata !"operator=", metadata !"operator=", metadata !"_ZN10ap_bit_refILi64ELb0EEaSEy", metadata !20, i32 1129, metadata !731, i1 false, i1 false, i32 0, i32 0, null, i1 false} ; [ DW_TAG_subprogram ]
!731 = metadata !{i32 458773, metadata !2, metadata !"", metadata !2, i32 0, i64 0, i64 0, i64 0, i32 0, null, metadata !732, i32 0, null} ; [ DW_TAG_subroutine_type ]
!732 = metadata !{metadata !733, metadata !719, metadata !79}
!733 = metadata !{i32 458768, metadata !2, metadata !"ap_bit_ref<64,false>", metadata !2, i32 0, i64 64, i64 64, i64 0, i32 0, metadata !712} ; [ DW_TAG_reference_type ]
!734 = metadata !{i32 458798, i32 0, metadata !712, metadata !"operator=", metadata !"operator=", metadata !"_ZN10ap_bit_refILi64ELb0EEaSERKS0_", metadata !20, i32 1149, metadata !735, i1 false, i1 false, i32 0, i32 0, null, i1 false} ; [ DW_TAG_subprogram ]
!735 = metadata !{i32 458773, metadata !2, metadata !"", metadata !2, i32 0, i64 0, i64 0, i64 0, i32 0, null, metadata !736, i32 0, null} ; [ DW_TAG_subroutine_type ]
!736 = metadata !{metadata !733, metadata !719, metadata !720}
!737 = metadata !{i32 458798, i32 0, metadata !712, metadata !"get", metadata !"get", metadata !"_ZNK10ap_bit_refILi64ELb0EE3getEv", metadata !20, i32 1257, metadata !726, i1 false, i1 false, i32 0, i32 0, null, i1 false} ; [ DW_TAG_subprogram ]
!738 = metadata !{i32 458798, i32 0, metadata !712, metadata !"get", metadata !"get", metadata !"_ZN10ap_bit_refILi64ELb0EE3getEv", metadata !20, i32 1261, metadata !739, i1 false, i1 false, i32 0, i32 0, null, i1 false} ; [ DW_TAG_subprogram ]
!739 = metadata !{i32 458773, metadata !2, metadata !"", metadata !2, i32 0, i64 0, i64 0, i64 0, i32 0, null, metadata !740, i32 0, null} ; [ DW_TAG_subroutine_type ]
!740 = metadata !{metadata !39, metadata !719}
!741 = metadata !{i32 458798, i32 0, metadata !712, metadata !"operator~", metadata !"operator~", metadata !"_ZNK10ap_bit_refILi64ELb0EEcoEv", metadata !20, i32 1270, metadata !726, i1 false, i1 false, i32 0, i32 0, null, i1 false} ; [ DW_TAG_subprogram ]
!742 = metadata !{i32 458798, i32 0, metadata !712, metadata !"length", metadata !"length", metadata !"_ZNK10ap_bit_refILi64ELb0EE6lengthEv", metadata !20, i32 1275, metadata !743, i1 false, i1 false, i32 0, i32 0, null, i1 false} ; [ DW_TAG_subprogram ]
!743 = metadata !{i32 458773, metadata !2, metadata !"", metadata !2, i32 0, i64 0, i64 0, i64 0, i32 0, null, metadata !744, i32 0, null} ; [ DW_TAG_subroutine_type ]
!744 = metadata !{metadata !59, metadata !728}
!745 = metadata !{i32 458798, i32 0, metadata !485, metadata !"operator[]", metadata !"operator[]", metadata !"_ZNK11ap_int_baseILi64ELb0ELb1EEixEi", metadata !20, i32 1928, metadata !620, i1 false, i1 false, i32 0, i32 0, null, i1 false} ; [ DW_TAG_subprogram ]
!746 = metadata !{i32 458798, i32 0, metadata !485, metadata !"bit", metadata !"bit", metadata !"_ZN11ap_int_baseILi64ELb0ELb1EE3bitEi", metadata !20, i32 1942, metadata !710, i1 false, i1 false, i32 0, i32 0, null, i1 false} ; [ DW_TAG_subprogram ]
!747 = metadata !{i32 458798, i32 0, metadata !485, metadata !"bit", metadata !"bit", metadata !"_ZNK11ap_int_baseILi64ELb0ELb1EE3bitEi", metadata !20, i32 1956, metadata !620, i1 false, i1 false, i32 0, i32 0, null, i1 false} ; [ DW_TAG_subprogram ]
!748 = metadata !{i32 458798, i32 0, metadata !485, metadata !"and_reduce", metadata !"and_reduce", metadata !"_ZN11ap_int_baseILi64ELb0ELb1EE10and_reduceEv", metadata !20, i32 2136, metadata !749, i1 false, i1 false, i32 0, i32 0, null, i1 false} ; [ DW_TAG_subprogram ]
!749 = metadata !{i32 458773, metadata !2, metadata !"", metadata !2, i32 0, i64 0, i64 0, i64 0, i32 0, null, metadata !750, i32 0, null} ; [ DW_TAG_subroutine_type ]
!750 = metadata !{metadata !39, metadata !499}
!751 = metadata !{i32 458798, i32 0, metadata !485, metadata !"nand_reduce", metadata !"nand_reduce", metadata !"_ZN11ap_int_baseILi64ELb0ELb1EE11nand_reduceEv", metadata !20, i32 2139, metadata !749, i1 false, i1 false, i32 0, i32 0, null, i1 false} ; [ DW_TAG_subprogram ]
!752 = metadata !{i32 458798, i32 0, metadata !485, metadata !"or_reduce", metadata !"or_reduce", metadata !"_ZN11ap_int_baseILi64ELb0ELb1EE9or_reduceEv", metadata !20, i32 2142, metadata !749, i1 false, i1 false, i32 0, i32 0, null, i1 false} ; [ DW_TAG_subprogram ]
!753 = metadata !{i32 458798, i32 0, metadata !485, metadata !"nor_reduce", metadata !"nor_reduce", metadata !"_ZN11ap_int_baseILi64ELb0ELb1EE10nor_reduceEv", metadata !20, i32 2145, metadata !749, i1 false, i1 false, i32 0, i32 0, null, i1 false} ; [ DW_TAG_subprogram ]
!754 = metadata !{i32 458798, i32 0, metadata !485, metadata !"xor_reduce", metadata !"xor_reduce", metadata !"_ZN11ap_int_baseILi64ELb0ELb1EE10xor_reduceEv", metadata !20, i32 2148, metadata !749, i1 false, i1 false, i32 0, i32 0, null, i1 false} ; [ DW_TAG_subprogram ]
!755 = metadata !{i32 458798, i32 0, metadata !485, metadata !"xnor_reduce", metadata !"xnor_reduce", metadata !"_ZN11ap_int_baseILi64ELb0ELb1EE11xnor_reduceEv", metadata !20, i32 2151, metadata !749, i1 false, i1 false, i32 0, i32 0, null, i1 false} ; [ DW_TAG_subprogram ]
!756 = metadata !{i32 458798, i32 0, metadata !485, metadata !"and_reduce", metadata !"and_reduce", metadata !"_ZNK11ap_int_baseILi64ELb0ELb1EE10and_reduceEv", metadata !20, i32 2155, metadata !585, i1 false, i1 false, i32 0, i32 0, null, i1 false} ; [ DW_TAG_subprogram ]
!757 = metadata !{i32 458798, i32 0, metadata !485, metadata !"nand_reduce", metadata !"nand_reduce", metadata !"_ZNK11ap_int_baseILi64ELb0ELb1EE11nand_reduceEv", metadata !20, i32 2158, metadata !585, i1 false, i1 false, i32 0, i32 0, null, i1 false} ; [ DW_TAG_subprogram ]
!758 = metadata !{i32 458798, i32 0, metadata !485, metadata !"or_reduce", metadata !"or_reduce", metadata !"_ZNK11ap_int_baseILi64ELb0ELb1EE9or_reduceEv", metadata !20, i32 2161, metadata !585, i1 false, i1 false, i32 0, i32 0, null, i1 false} ; [ DW_TAG_subprogram ]
!759 = metadata !{i32 458798, i32 0, metadata !485, metadata !"nor_reduce", metadata !"nor_reduce", metadata !"_ZNK11ap_int_baseILi64ELb0ELb1EE10nor_reduceEv", metadata !20, i32 2164, metadata !585, i1 false, i1 false, i32 0, i32 0, null, i1 false} ; [ DW_TAG_subprogram ]
!760 = metadata !{i32 458798, i32 0, metadata !485, metadata !"xor_reduce", metadata !"xor_reduce", metadata !"_ZNK11ap_int_baseILi64ELb0ELb1EE10xor_reduceEv", metadata !20, i32 2167, metadata !585, i1 false, i1 false, i32 0, i32 0, null, i1 false} ; [ DW_TAG_subprogram ]
!761 = metadata !{i32 458798, i32 0, metadata !485, metadata !"xnor_reduce", metadata !"xnor_reduce", metadata !"_ZNK11ap_int_baseILi64ELb0ELb1EE11xnor_reduceEv", metadata !20, i32 2170, metadata !585, i1 false, i1 false, i32 0, i32 0, null, i1 false} ; [ DW_TAG_subprogram ]
!762 = metadata !{i32 458798, i32 0, metadata !485, metadata !"to_string", metadata !"to_string", metadata !"_ZNK11ap_int_baseILi64ELb0ELb1EE9to_stringEPci8BaseModeb", metadata !20, i32 2177, metadata !763, i1 false, i1 false, i32 0, i32 0, null, i1 false} ; [ DW_TAG_subprogram ]
!763 = metadata !{i32 458773, metadata !2, metadata !"", metadata !2, i32 0, i64 0, i64 0, i64 0, i32 0, null, metadata !764, i32 0, null} ; [ DW_TAG_subroutine_type ]
!764 = metadata !{null, metadata !583, metadata !232, metadata !59, metadata !233, metadata !39}
!765 = metadata !{i32 458798, i32 0, metadata !485, metadata !"to_string", metadata !"to_string", metadata !"_ZNK11ap_int_baseILi64ELb0ELb1EE9to_stringE8BaseModeb", metadata !20, i32 2204, metadata !766, i1 false, i1 false, i32 0, i32 0, null, i1 false} ; [ DW_TAG_subprogram ]
!766 = metadata !{i32 458773, metadata !2, metadata !"", metadata !2, i32 0, i64 0, i64 0, i64 0, i32 0, null, metadata !767, i32 0, null} ; [ DW_TAG_subroutine_type ]
!767 = metadata !{metadata !232, metadata !583, metadata !233, metadata !39}
!768 = metadata !{i32 458798, i32 0, metadata !485, metadata !"to_string", metadata !"to_string", metadata !"_ZNK11ap_int_baseILi64ELb0ELb1EE9to_stringEab", metadata !20, i32 2208, metadata !769, i1 false, i1 false, i32 0, i32 0, null, i1 false} ; [ DW_TAG_subprogram ]
!769 = metadata !{i32 458773, metadata !2, metadata !"", metadata !2, i32 0, i64 0, i64 0, i64 0, i32 0, null, metadata !770, i32 0, null} ; [ DW_TAG_subroutine_type ]
!770 = metadata !{metadata !232, metadata !583, metadata !43, metadata !39}
!771 = metadata !{i32 458798, i32 0, metadata !482, metadata !"ap_uint", metadata !"ap_uint", metadata !"", metadata !16, i32 137, metadata !772, i1 false, i1 false, i32 0, i32 0, null, i1 false} ; [ DW_TAG_subprogram ]
!772 = metadata !{i32 458773, metadata !2, metadata !"", metadata !2, i32 0, i64 0, i64 0, i64 0, i32 0, null, metadata !773, i32 0, null} ; [ DW_TAG_subroutine_type ]
!773 = metadata !{null, metadata !774}
!774 = metadata !{i32 458767, metadata !2, metadata !"", metadata !2, i32 0, i64 64, i64 64, i64 0, i32 64, metadata !482} ; [ DW_TAG_pointer_type ]
!775 = metadata !{i32 458798, i32 0, metadata !482, metadata !"ap_uint", metadata !"ap_uint", metadata !"", metadata !16, i32 199, metadata !776, i1 false, i1 false, i32 0, i32 0, null, i1 false} ; [ DW_TAG_subprogram ]
!776 = metadata !{i32 458773, metadata !2, metadata !"", metadata !2, i32 0, i64 0, i64 0, i64 0, i32 0, null, metadata !777, i32 0, null} ; [ DW_TAG_subroutine_type ]
!777 = metadata !{null, metadata !774, metadata !39}
!778 = metadata !{i32 458798, i32 0, metadata !482, metadata !"ap_uint", metadata !"ap_uint", metadata !"", metadata !16, i32 200, metadata !779, i1 false, i1 false, i32 0, i32 0, null, i1 false} ; [ DW_TAG_subprogram ]
!779 = metadata !{i32 458773, metadata !2, metadata !"", metadata !2, i32 0, i64 0, i64 0, i64 0, i32 0, null, metadata !780, i32 0, null} ; [ DW_TAG_subroutine_type ]
!780 = metadata !{null, metadata !774, metadata !43}
!781 = metadata !{i32 458798, i32 0, metadata !482, metadata !"ap_uint", metadata !"ap_uint", metadata !"", metadata !16, i32 201, metadata !782, i1 false, i1 false, i32 0, i32 0, null, i1 false} ; [ DW_TAG_subprogram ]
!782 = metadata !{i32 458773, metadata !2, metadata !"", metadata !2, i32 0, i64 0, i64 0, i64 0, i32 0, null, metadata !783, i32 0, null} ; [ DW_TAG_subroutine_type ]
!783 = metadata !{null, metadata !774, metadata !47}
!784 = metadata !{i32 458798, i32 0, metadata !482, metadata !"ap_uint", metadata !"ap_uint", metadata !"", metadata !16, i32 202, metadata !785, i1 false, i1 false, i32 0, i32 0, null, i1 false} ; [ DW_TAG_subprogram ]
!785 = metadata !{i32 458773, metadata !2, metadata !"", metadata !2, i32 0, i64 0, i64 0, i64 0, i32 0, null, metadata !786, i32 0, null} ; [ DW_TAG_subroutine_type ]
!786 = metadata !{null, metadata !774, metadata !51}
!787 = metadata !{i32 458798, i32 0, metadata !482, metadata !"ap_uint", metadata !"ap_uint", metadata !"", metadata !16, i32 203, metadata !788, i1 false, i1 false, i32 0, i32 0, null, i1 false} ; [ DW_TAG_subprogram ]
!788 = metadata !{i32 458773, metadata !2, metadata !"", metadata !2, i32 0, i64 0, i64 0, i64 0, i32 0, null, metadata !789, i32 0, null} ; [ DW_TAG_subroutine_type ]
!789 = metadata !{null, metadata !774, metadata !55}
!790 = metadata !{i32 458798, i32 0, metadata !482, metadata !"ap_uint", metadata !"ap_uint", metadata !"", metadata !16, i32 204, metadata !791, i1 false, i1 false, i32 0, i32 0, null, i1 false} ; [ DW_TAG_subprogram ]
!791 = metadata !{i32 458773, metadata !2, metadata !"", metadata !2, i32 0, i64 0, i64 0, i64 0, i32 0, null, metadata !792, i32 0, null} ; [ DW_TAG_subroutine_type ]
!792 = metadata !{null, metadata !774, metadata !59}
!793 = metadata !{i32 458798, i32 0, metadata !482, metadata !"ap_uint", metadata !"ap_uint", metadata !"", metadata !16, i32 205, metadata !794, i1 false, i1 false, i32 0, i32 0, null, i1 false} ; [ DW_TAG_subprogram ]
!794 = metadata !{i32 458773, metadata !2, metadata !"", metadata !2, i32 0, i64 0, i64 0, i64 0, i32 0, null, metadata !795, i32 0, null} ; [ DW_TAG_subroutine_type ]
!795 = metadata !{null, metadata !774, metadata !63}
!796 = metadata !{i32 458798, i32 0, metadata !482, metadata !"ap_uint", metadata !"ap_uint", metadata !"", metadata !16, i32 206, metadata !797, i1 false, i1 false, i32 0, i32 0, null, i1 false} ; [ DW_TAG_subprogram ]
!797 = metadata !{i32 458773, metadata !2, metadata !"", metadata !2, i32 0, i64 0, i64 0, i64 0, i32 0, null, metadata !798, i32 0, null} ; [ DW_TAG_subroutine_type ]
!798 = metadata !{null, metadata !774, metadata !67}
!799 = metadata !{i32 458798, i32 0, metadata !482, metadata !"ap_uint", metadata !"ap_uint", metadata !"", metadata !16, i32 207, metadata !800, i1 false, i1 false, i32 0, i32 0, null, i1 false} ; [ DW_TAG_subprogram ]
!800 = metadata !{i32 458773, metadata !2, metadata !"", metadata !2, i32 0, i64 0, i64 0, i64 0, i32 0, null, metadata !801, i32 0, null} ; [ DW_TAG_subroutine_type ]
!801 = metadata !{null, metadata !774, metadata !71}
!802 = metadata !{i32 458798, i32 0, metadata !482, metadata !"ap_uint", metadata !"ap_uint", metadata !"", metadata !16, i32 208, metadata !803, i1 false, i1 false, i32 0, i32 0, null, i1 false} ; [ DW_TAG_subprogram ]
!803 = metadata !{i32 458773, metadata !2, metadata !"", metadata !2, i32 0, i64 0, i64 0, i64 0, i32 0, null, metadata !804, i32 0, null} ; [ DW_TAG_subroutine_type ]
!804 = metadata !{null, metadata !774, metadata !79}
!805 = metadata !{i32 458798, i32 0, metadata !482, metadata !"ap_uint", metadata !"ap_uint", metadata !"", metadata !16, i32 209, metadata !806, i1 false, i1 false, i32 0, i32 0, null, i1 false} ; [ DW_TAG_subprogram ]
!806 = metadata !{i32 458773, metadata !2, metadata !"", metadata !2, i32 0, i64 0, i64 0, i64 0, i32 0, null, metadata !807, i32 0, null} ; [ DW_TAG_subroutine_type ]
!807 = metadata !{null, metadata !774, metadata !75}
!808 = metadata !{i32 458798, i32 0, metadata !482, metadata !"ap_uint", metadata !"ap_uint", metadata !"", metadata !16, i32 210, metadata !809, i1 false, i1 false, i32 0, i32 0, null, i1 false} ; [ DW_TAG_subprogram ]
!809 = metadata !{i32 458773, metadata !2, metadata !"", metadata !2, i32 0, i64 0, i64 0, i64 0, i32 0, null, metadata !810, i32 0, null} ; [ DW_TAG_subroutine_type ]
!810 = metadata !{null, metadata !774, metadata !83}
!811 = metadata !{i32 458798, i32 0, metadata !482, metadata !"ap_uint", metadata !"ap_uint", metadata !"", metadata !16, i32 211, metadata !812, i1 false, i1 false, i32 0, i32 0, null, i1 false} ; [ DW_TAG_subprogram ]
!812 = metadata !{i32 458773, metadata !2, metadata !"", metadata !2, i32 0, i64 0, i64 0, i64 0, i32 0, null, metadata !813, i32 0, null} ; [ DW_TAG_subroutine_type ]
!813 = metadata !{null, metadata !774, metadata !87}
!814 = metadata !{i32 458798, i32 0, metadata !482, metadata !"ap_uint", metadata !"ap_uint", metadata !"", metadata !16, i32 213, metadata !815, i1 false, i1 false, i32 0, i32 0, null, i1 false} ; [ DW_TAG_subprogram ]
!815 = metadata !{i32 458773, metadata !2, metadata !"", metadata !2, i32 0, i64 0, i64 0, i64 0, i32 0, null, metadata !816, i32 0, null} ; [ DW_TAG_subroutine_type ]
!816 = metadata !{null, metadata !774, metadata !91}
!817 = metadata !{i32 458798, i32 0, metadata !482, metadata !"ap_uint", metadata !"ap_uint", metadata !"", metadata !16, i32 214, metadata !818, i1 false, i1 false, i32 0, i32 0, null, i1 false} ; [ DW_TAG_subprogram ]
!818 = metadata !{i32 458773, metadata !2, metadata !"", metadata !2, i32 0, i64 0, i64 0, i64 0, i32 0, null, metadata !819, i32 0, null} ; [ DW_TAG_subroutine_type ]
!819 = metadata !{null, metadata !774, metadata !91, metadata !43}
!820 = metadata !{i32 458798, i32 0, metadata !482, metadata !"operator=", metadata !"operator=", metadata !"_ZNV7ap_uintILi64EEaSERKS0_", metadata !16, i32 217, metadata !821, i1 false, i1 false, i32 0, i32 0, null, i1 false} ; [ DW_TAG_subprogram ]
!821 = metadata !{i32 458773, metadata !2, metadata !"", metadata !2, i32 0, i64 0, i64 0, i64 0, i32 0, null, metadata !822, i32 0, null} ; [ DW_TAG_subroutine_type ]
!822 = metadata !{null, metadata !823, metadata !825}
!823 = metadata !{i32 458767, metadata !2, metadata !"", metadata !2, i32 0, i64 64, i64 64, i64 0, i32 64, metadata !824} ; [ DW_TAG_pointer_type ]
!824 = metadata !{i32 458805, metadata !2, metadata !"", metadata !2, i32 0, i64 64, i64 64, i64 0, i32 0, metadata !482} ; [ DW_TAG_volatile_type ]
!825 = metadata !{i32 458768, metadata !2, metadata !"", metadata !2, i32 0, i64 64, i64 64, i64 0, i32 0, metadata !826} ; [ DW_TAG_reference_type ]
!826 = metadata !{i32 458790, metadata !2, metadata !"", metadata !2, i32 0, i64 64, i64 64, i64 0, i32 0, metadata !482} ; [ DW_TAG_const_type ]
!827 = metadata !{i32 458798, i32 0, metadata !482, metadata !"operator=", metadata !"operator=", metadata !"_ZNV7ap_uintILi64EEaSERVKS0_", metadata !16, i32 221, metadata !828, i1 false, i1 false, i32 0, i32 0, null, i1 false} ; [ DW_TAG_subprogram ]
!828 = metadata !{i32 458773, metadata !2, metadata !"", metadata !2, i32 0, i64 0, i64 0, i64 0, i32 0, null, metadata !829, i32 0, null} ; [ DW_TAG_subroutine_type ]
!829 = metadata !{null, metadata !823, metadata !830}
!830 = metadata !{i32 458768, metadata !2, metadata !"", metadata !2, i32 0, i64 64, i64 64, i64 0, i32 0, metadata !831} ; [ DW_TAG_reference_type ]
!831 = metadata !{i32 458790, metadata !2, metadata !"", metadata !2, i32 0, i64 64, i64 64, i64 0, i32 0, metadata !824} ; [ DW_TAG_const_type ]
!832 = metadata !{i32 458798, i32 0, metadata !482, metadata !"operator=", metadata !"operator=", metadata !"_ZN7ap_uintILi64EEaSERVKS0_", metadata !16, i32 225, metadata !833, i1 false, i1 false, i32 0, i32 0, null, i1 false} ; [ DW_TAG_subprogram ]
!833 = metadata !{i32 458773, metadata !2, metadata !"", metadata !2, i32 0, i64 0, i64 0, i64 0, i32 0, null, metadata !834, i32 0, null} ; [ DW_TAG_subroutine_type ]
!834 = metadata !{metadata !835, metadata !774, metadata !830}
!835 = metadata !{i32 458768, metadata !2, metadata !"ap_uint<64>", metadata !2, i32 0, i64 64, i64 64, i64 0, i32 0, metadata !482} ; [ DW_TAG_reference_type ]
!836 = metadata !{i32 458798, i32 0, metadata !482, metadata !"operator=", metadata !"operator=", metadata !"_ZN7ap_uintILi64EEaSERKS0_", metadata !16, i32 230, metadata !837, i1 false, i1 true, i32 0, i32 0, null, i1 false} ; [ DW_TAG_subprogram ]
!837 = metadata !{i32 458773, metadata !2, metadata !"", metadata !2, i32 0, i64 0, i64 0, i64 0, i32 0, null, metadata !838, i32 0, null} ; [ DW_TAG_subroutine_type ]
!838 = metadata !{metadata !835, metadata !774, metadata !825}
!839 = metadata !{i32 458765, metadata !478, metadata !"keep", metadata !479, i32 57, i64 8, i64 8, i64 64, i32 0, metadata !840} ; [ DW_TAG_member ]
!840 = metadata !{i32 458771, metadata !2, metadata !"ap_uint<8>", metadata !16, i32 134, i64 8, i64 8, i64 0, i32 0, null, metadata !841, i32 0, null} ; [ DW_TAG_structure_type ]
!841 = metadata !{metadata !842, metadata !1097, metadata !1101, metadata !1104, metadata !1107, metadata !1110, metadata !1113, metadata !1116, metadata !1119, metadata !1122, metadata !1125, metadata !1128, metadata !1131, metadata !1134, metadata !1137, metadata !1140, metadata !1143, metadata !1146, metadata !1153, metadata !1158, metadata !1162}
!842 = metadata !{i32 458780, metadata !2, metadata !"", null, i32 0, i64 0, i64 0, i64 0, i32 0, metadata !843} ; [ DW_TAG_inheritance ]
!843 = metadata !{i32 458771, metadata !2, metadata !"ap_int_base<8,false,true>", metadata !20, i32 599, i64 8, i64 8, i64 0, i32 0, null, metadata !844, i32 0, null} ; [ DW_TAG_structure_type ]
!844 = metadata !{metadata !845, metadata !854, metadata !858, metadata !861, metadata !864, metadata !867, metadata !870, metadata !873, metadata !876, metadata !879, metadata !882, metadata !885, metadata !888, metadata !891, metadata !894, metadata !897, metadata !900, metadata !903, metadata !908, metadata !913, metadata !918, metadata !919, metadata !923, metadata !926, metadata !929, metadata !932, metadata !935, metadata !938, metadata !942, metadata !945, metadata !948, metadata !951, metadata !954, metadata !957, metadata !960, metadata !961, metadata !964, metadata !965, metadata !969, metadata !972, metadata !973, metadata !974, metadata !975, metadata !976, metadata !977, metadata !980, metadata !981, metadata !984, metadata !985, metadata !986, metadata !987, metadata !988, metadata !989, metadata !992, metadata !993, metadata !994, metadata !997, metadata !998, metadata !1001, metadata !1002, metadata !1062, metadata !1063, metadata !1066, metadata !1067, metadata !1071, metadata !1072, metadata !1073, metadata !1074, metadata !1077, metadata !1078, metadata !1079, metadata !1080, metadata !1081, metadata !1082, metadata !1083, metadata !1084, metadata !1085, metadata !1086, metadata !1087, metadata !1088, metadata !1091, metadata !1094}
!845 = metadata !{i32 458780, metadata !2, metadata !"", null, i32 0, i64 0, i64 0, i64 0, i32 0, metadata !846} ; [ DW_TAG_inheritance ]
!846 = metadata !{i32 458771, metadata !2, metadata !"ssdm_int<8,false>", metadata !24, i32 10, i64 8, i64 8, i64 0, i32 0, null, metadata !847, i32 0, null} ; [ DW_TAG_structure_type ]
!847 = metadata !{metadata !848, metadata !850}
!848 = metadata !{i32 458765, metadata !846, metadata !"V", metadata !24, i32 10, i64 8, i64 8, i64 0, i32 0, metadata !849} ; [ DW_TAG_member ]
!849 = metadata !{i32 458788, metadata !2, metadata !"", metadata !2, i32 0, i64 8, i64 8, i64 0, i32 0, i32 7} ; [ DW_TAG_base_type ]
!850 = metadata !{i32 458798, i32 0, metadata !846, metadata !"ssdm_int", metadata !"ssdm_int", metadata !"", metadata !24, i32 10, metadata !851, i1 false, i1 false, i32 0, i32 0, null, i1 false} ; [ DW_TAG_subprogram ]
!851 = metadata !{i32 458773, metadata !2, metadata !"", metadata !2, i32 0, i64 0, i64 0, i64 0, i32 0, null, metadata !852, i32 0, null} ; [ DW_TAG_subroutine_type ]
!852 = metadata !{null, metadata !853}
!853 = metadata !{i32 458767, metadata !2, metadata !"", metadata !2, i32 0, i64 64, i64 64, i64 0, i32 64, metadata !846} ; [ DW_TAG_pointer_type ]
!854 = metadata !{i32 458798, i32 0, metadata !843, metadata !"ap_int_base", metadata !"ap_int_base", metadata !"", metadata !20, i32 1331, metadata !855, i1 false, i1 false, i32 0, i32 0, null, i1 false} ; [ DW_TAG_subprogram ]
!855 = metadata !{i32 458773, metadata !2, metadata !"", metadata !2, i32 0, i64 0, i64 0, i64 0, i32 0, null, metadata !856, i32 0, null} ; [ DW_TAG_subroutine_type ]
!856 = metadata !{null, metadata !857}
!857 = metadata !{i32 458767, metadata !2, metadata !"", metadata !2, i32 0, i64 64, i64 64, i64 0, i32 64, metadata !843} ; [ DW_TAG_pointer_type ]
!858 = metadata !{i32 458798, i32 0, metadata !843, metadata !"ap_int_base", metadata !"ap_int_base", metadata !"", metadata !20, i32 1353, metadata !859, i1 false, i1 false, i32 0, i32 0, null, i1 false} ; [ DW_TAG_subprogram ]
!859 = metadata !{i32 458773, metadata !2, metadata !"", metadata !2, i32 0, i64 0, i64 0, i64 0, i32 0, null, metadata !860, i32 0, null} ; [ DW_TAG_subroutine_type ]
!860 = metadata !{null, metadata !857, metadata !39}
!861 = metadata !{i32 458798, i32 0, metadata !843, metadata !"ap_int_base", metadata !"ap_int_base", metadata !"", metadata !20, i32 1354, metadata !862, i1 false, i1 false, i32 0, i32 0, null, i1 false} ; [ DW_TAG_subprogram ]
!862 = metadata !{i32 458773, metadata !2, metadata !"", metadata !2, i32 0, i64 0, i64 0, i64 0, i32 0, null, metadata !863, i32 0, null} ; [ DW_TAG_subroutine_type ]
!863 = metadata !{null, metadata !857, metadata !43}
!864 = metadata !{i32 458798, i32 0, metadata !843, metadata !"ap_int_base", metadata !"ap_int_base", metadata !"", metadata !20, i32 1355, metadata !865, i1 false, i1 false, i32 0, i32 0, null, i1 false} ; [ DW_TAG_subprogram ]
!865 = metadata !{i32 458773, metadata !2, metadata !"", metadata !2, i32 0, i64 0, i64 0, i64 0, i32 0, null, metadata !866, i32 0, null} ; [ DW_TAG_subroutine_type ]
!866 = metadata !{null, metadata !857, metadata !47}
!867 = metadata !{i32 458798, i32 0, metadata !843, metadata !"ap_int_base", metadata !"ap_int_base", metadata !"", metadata !20, i32 1356, metadata !868, i1 false, i1 false, i32 0, i32 0, null, i1 false} ; [ DW_TAG_subprogram ]
!868 = metadata !{i32 458773, metadata !2, metadata !"", metadata !2, i32 0, i64 0, i64 0, i64 0, i32 0, null, metadata !869, i32 0, null} ; [ DW_TAG_subroutine_type ]
!869 = metadata !{null, metadata !857, metadata !51}
!870 = metadata !{i32 458798, i32 0, metadata !843, metadata !"ap_int_base", metadata !"ap_int_base", metadata !"", metadata !20, i32 1357, metadata !871, i1 false, i1 false, i32 0, i32 0, null, i1 false} ; [ DW_TAG_subprogram ]
!871 = metadata !{i32 458773, metadata !2, metadata !"", metadata !2, i32 0, i64 0, i64 0, i64 0, i32 0, null, metadata !872, i32 0, null} ; [ DW_TAG_subroutine_type ]
!872 = metadata !{null, metadata !857, metadata !55}
!873 = metadata !{i32 458798, i32 0, metadata !843, metadata !"ap_int_base", metadata !"ap_int_base", metadata !"", metadata !20, i32 1358, metadata !874, i1 false, i1 false, i32 0, i32 0, null, i1 false} ; [ DW_TAG_subprogram ]
!874 = metadata !{i32 458773, metadata !2, metadata !"", metadata !2, i32 0, i64 0, i64 0, i64 0, i32 0, null, metadata !875, i32 0, null} ; [ DW_TAG_subroutine_type ]
!875 = metadata !{null, metadata !857, metadata !59}
!876 = metadata !{i32 458798, i32 0, metadata !843, metadata !"ap_int_base", metadata !"ap_int_base", metadata !"", metadata !20, i32 1359, metadata !877, i1 false, i1 false, i32 0, i32 0, null, i1 false} ; [ DW_TAG_subprogram ]
!877 = metadata !{i32 458773, metadata !2, metadata !"", metadata !2, i32 0, i64 0, i64 0, i64 0, i32 0, null, metadata !878, i32 0, null} ; [ DW_TAG_subroutine_type ]
!878 = metadata !{null, metadata !857, metadata !63}
!879 = metadata !{i32 458798, i32 0, metadata !843, metadata !"ap_int_base", metadata !"ap_int_base", metadata !"", metadata !20, i32 1360, metadata !880, i1 false, i1 false, i32 0, i32 0, null, i1 false} ; [ DW_TAG_subprogram ]
!880 = metadata !{i32 458773, metadata !2, metadata !"", metadata !2, i32 0, i64 0, i64 0, i64 0, i32 0, null, metadata !881, i32 0, null} ; [ DW_TAG_subroutine_type ]
!881 = metadata !{null, metadata !857, metadata !67}
!882 = metadata !{i32 458798, i32 0, metadata !843, metadata !"ap_int_base", metadata !"ap_int_base", metadata !"", metadata !20, i32 1361, metadata !883, i1 false, i1 false, i32 0, i32 0, null, i1 false} ; [ DW_TAG_subprogram ]
!883 = metadata !{i32 458773, metadata !2, metadata !"", metadata !2, i32 0, i64 0, i64 0, i64 0, i32 0, null, metadata !884, i32 0, null} ; [ DW_TAG_subroutine_type ]
!884 = metadata !{null, metadata !857, metadata !71}
!885 = metadata !{i32 458798, i32 0, metadata !843, metadata !"ap_int_base", metadata !"ap_int_base", metadata !"", metadata !20, i32 1362, metadata !886, i1 false, i1 false, i32 0, i32 0, null, i1 false} ; [ DW_TAG_subprogram ]
!886 = metadata !{i32 458773, metadata !2, metadata !"", metadata !2, i32 0, i64 0, i64 0, i64 0, i32 0, null, metadata !887, i32 0, null} ; [ DW_TAG_subroutine_type ]
!887 = metadata !{null, metadata !857, metadata !75}
!888 = metadata !{i32 458798, i32 0, metadata !843, metadata !"ap_int_base", metadata !"ap_int_base", metadata !"", metadata !20, i32 1363, metadata !889, i1 false, i1 false, i32 0, i32 0, null, i1 false} ; [ DW_TAG_subprogram ]
!889 = metadata !{i32 458773, metadata !2, metadata !"", metadata !2, i32 0, i64 0, i64 0, i64 0, i32 0, null, metadata !890, i32 0, null} ; [ DW_TAG_subroutine_type ]
!890 = metadata !{null, metadata !857, metadata !79}
!891 = metadata !{i32 458798, i32 0, metadata !843, metadata !"ap_int_base", metadata !"ap_int_base", metadata !"", metadata !20, i32 1364, metadata !892, i1 false, i1 false, i32 0, i32 0, null, i1 false} ; [ DW_TAG_subprogram ]
!892 = metadata !{i32 458773, metadata !2, metadata !"", metadata !2, i32 0, i64 0, i64 0, i64 0, i32 0, null, metadata !893, i32 0, null} ; [ DW_TAG_subroutine_type ]
!893 = metadata !{null, metadata !857, metadata !83}
!894 = metadata !{i32 458798, i32 0, metadata !843, metadata !"ap_int_base", metadata !"ap_int_base", metadata !"", metadata !20, i32 1365, metadata !895, i1 false, i1 false, i32 0, i32 0, null, i1 false} ; [ DW_TAG_subprogram ]
!895 = metadata !{i32 458773, metadata !2, metadata !"", metadata !2, i32 0, i64 0, i64 0, i64 0, i32 0, null, metadata !896, i32 0, null} ; [ DW_TAG_subroutine_type ]
!896 = metadata !{null, metadata !857, metadata !87}
!897 = metadata !{i32 458798, i32 0, metadata !843, metadata !"ap_int_base", metadata !"ap_int_base", metadata !"", metadata !20, i32 1392, metadata !898, i1 false, i1 false, i32 0, i32 0, null, i1 false} ; [ DW_TAG_subprogram ]
!898 = metadata !{i32 458773, metadata !2, metadata !"", metadata !2, i32 0, i64 0, i64 0, i64 0, i32 0, null, metadata !899, i32 0, null} ; [ DW_TAG_subroutine_type ]
!899 = metadata !{null, metadata !857, metadata !91}
!900 = metadata !{i32 458798, i32 0, metadata !843, metadata !"ap_int_base", metadata !"ap_int_base", metadata !"", metadata !20, i32 1398, metadata !901, i1 false, i1 false, i32 0, i32 0, null, i1 false} ; [ DW_TAG_subprogram ]
!901 = metadata !{i32 458773, metadata !2, metadata !"", metadata !2, i32 0, i64 0, i64 0, i64 0, i32 0, null, metadata !902, i32 0, null} ; [ DW_TAG_subroutine_type ]
!902 = metadata !{null, metadata !857, metadata !91, metadata !43}
!903 = metadata !{i32 458798, i32 0, metadata !843, metadata !"read", metadata !"read", metadata !"_ZNV11ap_int_baseILi8ELb0ELb1EE4readEv", metadata !20, i32 1418, metadata !904, i1 false, i1 false, i32 0, i32 0, null, i1 false} ; [ DW_TAG_subprogram ]
!904 = metadata !{i32 458773, metadata !2, metadata !"", metadata !2, i32 0, i64 0, i64 0, i64 0, i32 0, null, metadata !905, i32 0, null} ; [ DW_TAG_subroutine_type ]
!905 = metadata !{metadata !843, metadata !906}
!906 = metadata !{i32 458767, metadata !2, metadata !"", metadata !2, i32 0, i64 64, i64 64, i64 0, i32 64, metadata !907} ; [ DW_TAG_pointer_type ]
!907 = metadata !{i32 458805, metadata !2, metadata !"", metadata !2, i32 0, i64 8, i64 8, i64 0, i32 0, metadata !843} ; [ DW_TAG_volatile_type ]
!908 = metadata !{i32 458798, i32 0, metadata !843, metadata !"write", metadata !"write", metadata !"_ZNV11ap_int_baseILi8ELb0ELb1EE5writeERKS0_", metadata !20, i32 1424, metadata !909, i1 false, i1 false, i32 0, i32 0, null, i1 false} ; [ DW_TAG_subprogram ]
!909 = metadata !{i32 458773, metadata !2, metadata !"", metadata !2, i32 0, i64 0, i64 0, i64 0, i32 0, null, metadata !910, i32 0, null} ; [ DW_TAG_subroutine_type ]
!910 = metadata !{null, metadata !906, metadata !911}
!911 = metadata !{i32 458768, metadata !2, metadata !"", metadata !2, i32 0, i64 64, i64 64, i64 0, i32 0, metadata !912} ; [ DW_TAG_reference_type ]
!912 = metadata !{i32 458790, metadata !2, metadata !"", metadata !2, i32 0, i64 8, i64 8, i64 0, i32 0, metadata !843} ; [ DW_TAG_const_type ]
!913 = metadata !{i32 458798, i32 0, metadata !843, metadata !"operator=", metadata !"operator=", metadata !"_ZNV11ap_int_baseILi8ELb0ELb1EEaSERVKS0_", metadata !20, i32 1436, metadata !914, i1 false, i1 false, i32 0, i32 0, null, i1 false} ; [ DW_TAG_subprogram ]
!914 = metadata !{i32 458773, metadata !2, metadata !"", metadata !2, i32 0, i64 0, i64 0, i64 0, i32 0, null, metadata !915, i32 0, null} ; [ DW_TAG_subroutine_type ]
!915 = metadata !{null, metadata !906, metadata !916}
!916 = metadata !{i32 458768, metadata !2, metadata !"", metadata !2, i32 0, i64 64, i64 64, i64 0, i32 0, metadata !917} ; [ DW_TAG_reference_type ]
!917 = metadata !{i32 458790, metadata !2, metadata !"", metadata !2, i32 0, i64 8, i64 8, i64 0, i32 0, metadata !907} ; [ DW_TAG_const_type ]
!918 = metadata !{i32 458798, i32 0, metadata !843, metadata !"operator=", metadata !"operator=", metadata !"_ZNV11ap_int_baseILi8ELb0ELb1EEaSERKS0_", metadata !20, i32 1445, metadata !909, i1 false, i1 false, i32 0, i32 0, null, i1 false} ; [ DW_TAG_subprogram ]
!919 = metadata !{i32 458798, i32 0, metadata !843, metadata !"operator=", metadata !"operator=", metadata !"_ZN11ap_int_baseILi8ELb0ELb1EEaSERVKS0_", metadata !20, i32 1468, metadata !920, i1 false, i1 false, i32 0, i32 0, null, i1 false} ; [ DW_TAG_subprogram ]
!920 = metadata !{i32 458773, metadata !2, metadata !"", metadata !2, i32 0, i64 0, i64 0, i64 0, i32 0, null, metadata !921, i32 0, null} ; [ DW_TAG_subroutine_type ]
!921 = metadata !{metadata !922, metadata !857, metadata !916}
!922 = metadata !{i32 458768, metadata !2, metadata !"ap_int_base<8,false,true>", metadata !2, i32 0, i64 64, i64 64, i64 0, i32 0, metadata !843} ; [ DW_TAG_reference_type ]
!923 = metadata !{i32 458798, i32 0, metadata !843, metadata !"operator=", metadata !"operator=", metadata !"_ZN11ap_int_baseILi8ELb0ELb1EEaSERKS0_", metadata !20, i32 1473, metadata !924, i1 false, i1 false, i32 0, i32 0, null, i1 false} ; [ DW_TAG_subprogram ]
!924 = metadata !{i32 458773, metadata !2, metadata !"", metadata !2, i32 0, i64 0, i64 0, i64 0, i32 0, null, metadata !925, i32 0, null} ; [ DW_TAG_subroutine_type ]
!925 = metadata !{metadata !922, metadata !857, metadata !911}
!926 = metadata !{i32 458798, i32 0, metadata !843, metadata !"operator=", metadata !"operator=", metadata !"_ZN11ap_int_baseILi8ELb0ELb1EEaSEPKc", metadata !20, i32 1477, metadata !927, i1 false, i1 false, i32 0, i32 0, null, i1 false} ; [ DW_TAG_subprogram ]
!927 = metadata !{i32 458773, metadata !2, metadata !"", metadata !2, i32 0, i64 0, i64 0, i64 0, i32 0, null, metadata !928, i32 0, null} ; [ DW_TAG_subroutine_type ]
!928 = metadata !{metadata !922, metadata !857, metadata !91}
!929 = metadata !{i32 458798, i32 0, metadata !843, metadata !"set", metadata !"set", metadata !"_ZN11ap_int_baseILi8ELb0ELb1EE3setEPKca", metadata !20, i32 1484, metadata !930, i1 false, i1 false, i32 0, i32 0, null, i1 false} ; [ DW_TAG_subprogram ]
!930 = metadata !{i32 458773, metadata !2, metadata !"", metadata !2, i32 0, i64 0, i64 0, i64 0, i32 0, null, metadata !931, i32 0, null} ; [ DW_TAG_subroutine_type ]
!931 = metadata !{metadata !922, metadata !857, metadata !91, metadata !43}
!932 = metadata !{i32 458798, i32 0, metadata !843, metadata !"operator=", metadata !"operator=", metadata !"_ZN11ap_int_baseILi8ELb0ELb1EEaSEy", metadata !20, i32 1492, metadata !933, i1 false, i1 false, i32 0, i32 0, null, i1 false} ; [ DW_TAG_subprogram ]
!933 = metadata !{i32 458773, metadata !2, metadata !"", metadata !2, i32 0, i64 0, i64 0, i64 0, i32 0, null, metadata !934, i32 0, null} ; [ DW_TAG_subroutine_type ]
!934 = metadata !{metadata !922, metadata !857, metadata !79}
!935 = metadata !{i32 458798, i32 0, metadata !843, metadata !"operator=", metadata !"operator=", metadata !"_ZN11ap_int_baseILi8ELb0ELb1EEaSEx", metadata !20, i32 1497, metadata !936, i1 false, i1 false, i32 0, i32 0, null, i1 false} ; [ DW_TAG_subprogram ]
!936 = metadata !{i32 458773, metadata !2, metadata !"", metadata !2, i32 0, i64 0, i64 0, i64 0, i32 0, null, metadata !937, i32 0, null} ; [ DW_TAG_subroutine_type ]
!937 = metadata !{metadata !922, metadata !857, metadata !75}
!938 = metadata !{i32 458798, i32 0, metadata !843, metadata !"operator ap_ulong", metadata !"operator ap_ulong", metadata !"_ZNK11ap_int_baseILi8ELb0ELb1EEcvyEv", metadata !20, i32 1538, metadata !939, i1 false, i1 false, i32 0, i32 0, null, i1 false} ; [ DW_TAG_subprogram ]
!939 = metadata !{i32 458773, metadata !2, metadata !"", metadata !2, i32 0, i64 0, i64 0, i64 0, i32 0, null, metadata !940, i32 0, null} ; [ DW_TAG_subroutine_type ]
!940 = metadata !{metadata !135, metadata !941}
!941 = metadata !{i32 458767, metadata !2, metadata !"", metadata !2, i32 0, i64 64, i64 64, i64 0, i32 64, metadata !912} ; [ DW_TAG_pointer_type ]
!942 = metadata !{i32 458798, i32 0, metadata !843, metadata !"to_bool", metadata !"to_bool", metadata !"_ZNK11ap_int_baseILi8ELb0ELb1EE7to_boolEv", metadata !20, i32 1544, metadata !943, i1 false, i1 false, i32 0, i32 0, null, i1 false} ; [ DW_TAG_subprogram ]
!943 = metadata !{i32 458773, metadata !2, metadata !"", metadata !2, i32 0, i64 0, i64 0, i64 0, i32 0, null, metadata !944, i32 0, null} ; [ DW_TAG_subroutine_type ]
!944 = metadata !{metadata !39, metadata !941}
!945 = metadata !{i32 458798, i32 0, metadata !843, metadata !"to_int", metadata !"to_int", metadata !"_ZNK11ap_int_baseILi8ELb0ELb1EE6to_intEv", metadata !20, i32 1545, metadata !946, i1 false, i1 false, i32 0, i32 0, null, i1 false} ; [ DW_TAG_subprogram ]
!946 = metadata !{i32 458773, metadata !2, metadata !"", metadata !2, i32 0, i64 0, i64 0, i64 0, i32 0, null, metadata !947, i32 0, null} ; [ DW_TAG_subroutine_type ]
!947 = metadata !{metadata !59, metadata !941}
!948 = metadata !{i32 458798, i32 0, metadata !843, metadata !"to_uint", metadata !"to_uint", metadata !"_ZNK11ap_int_baseILi8ELb0ELb1EE7to_uintEv", metadata !20, i32 1546, metadata !949, i1 false, i1 false, i32 0, i32 0, null, i1 false} ; [ DW_TAG_subprogram ]
!949 = metadata !{i32 458773, metadata !2, metadata !"", metadata !2, i32 0, i64 0, i64 0, i64 0, i32 0, null, metadata !950, i32 0, null} ; [ DW_TAG_subroutine_type ]
!950 = metadata !{metadata !63, metadata !941}
!951 = metadata !{i32 458798, i32 0, metadata !843, metadata !"to_long", metadata !"to_long", metadata !"_ZNK11ap_int_baseILi8ELb0ELb1EE7to_longEv", metadata !20, i32 1547, metadata !952, i1 false, i1 false, i32 0, i32 0, null, i1 false} ; [ DW_TAG_subprogram ]
!952 = metadata !{i32 458773, metadata !2, metadata !"", metadata !2, i32 0, i64 0, i64 0, i64 0, i32 0, null, metadata !953, i32 0, null} ; [ DW_TAG_subroutine_type ]
!953 = metadata !{metadata !67, metadata !941}
!954 = metadata !{i32 458798, i32 0, metadata !843, metadata !"to_ulong", metadata !"to_ulong", metadata !"_ZNK11ap_int_baseILi8ELb0ELb1EE8to_ulongEv", metadata !20, i32 1548, metadata !955, i1 false, i1 false, i32 0, i32 0, null, i1 false} ; [ DW_TAG_subprogram ]
!955 = metadata !{i32 458773, metadata !2, metadata !"", metadata !2, i32 0, i64 0, i64 0, i64 0, i32 0, null, metadata !956, i32 0, null} ; [ DW_TAG_subroutine_type ]
!956 = metadata !{metadata !71, metadata !941}
!957 = metadata !{i32 458798, i32 0, metadata !843, metadata !"to_int64", metadata !"to_int64", metadata !"_ZNK11ap_int_baseILi8ELb0ELb1EE8to_int64Ev", metadata !20, i32 1549, metadata !958, i1 false, i1 false, i32 0, i32 0, null, i1 false} ; [ DW_TAG_subprogram ]
!958 = metadata !{i32 458773, metadata !2, metadata !"", metadata !2, i32 0, i64 0, i64 0, i64 0, i32 0, null, metadata !959, i32 0, null} ; [ DW_TAG_subroutine_type ]
!959 = metadata !{metadata !156, metadata !941}
!960 = metadata !{i32 458798, i32 0, metadata !843, metadata !"to_uint64", metadata !"to_uint64", metadata !"_ZNK11ap_int_baseILi8ELb0ELb1EE9to_uint64Ev", metadata !20, i32 1550, metadata !939, i1 false, i1 false, i32 0, i32 0, null, i1 false} ; [ DW_TAG_subprogram ]
!961 = metadata !{i32 458798, i32 0, metadata !843, metadata !"to_double", metadata !"to_double", metadata !"_ZNK11ap_int_baseILi8ELb0ELb1EE9to_doubleEv", metadata !20, i32 1551, metadata !962, i1 false, i1 false, i32 0, i32 0, null, i1 false} ; [ DW_TAG_subprogram ]
!962 = metadata !{i32 458773, metadata !2, metadata !"", metadata !2, i32 0, i64 0, i64 0, i64 0, i32 0, null, metadata !963, i32 0, null} ; [ DW_TAG_subroutine_type ]
!963 = metadata !{metadata !87, metadata !941}
!964 = metadata !{i32 458798, i32 0, metadata !843, metadata !"length", metadata !"length", metadata !"_ZNK11ap_int_baseILi8ELb0ELb1EE6lengthEv", metadata !20, i32 1564, metadata !946, i1 false, i1 false, i32 0, i32 0, null, i1 false} ; [ DW_TAG_subprogram ]
!965 = metadata !{i32 458798, i32 0, metadata !843, metadata !"length", metadata !"length", metadata !"_ZNVK11ap_int_baseILi8ELb0ELb1EE6lengthEv", metadata !20, i32 1565, metadata !966, i1 false, i1 false, i32 0, i32 0, null, i1 false} ; [ DW_TAG_subprogram ]
!966 = metadata !{i32 458773, metadata !2, metadata !"", metadata !2, i32 0, i64 0, i64 0, i64 0, i32 0, null, metadata !967, i32 0, null} ; [ DW_TAG_subroutine_type ]
!967 = metadata !{metadata !59, metadata !968}
!968 = metadata !{i32 458767, metadata !2, metadata !"", metadata !2, i32 0, i64 64, i64 64, i64 0, i32 64, metadata !917} ; [ DW_TAG_pointer_type ]
!969 = metadata !{i32 458798, i32 0, metadata !843, metadata !"reverse", metadata !"reverse", metadata !"_ZN11ap_int_baseILi8ELb0ELb1EE7reverseEv", metadata !20, i32 1570, metadata !970, i1 false, i1 false, i32 0, i32 0, null, i1 false} ; [ DW_TAG_subprogram ]
!970 = metadata !{i32 458773, metadata !2, metadata !"", metadata !2, i32 0, i64 0, i64 0, i64 0, i32 0, null, metadata !971, i32 0, null} ; [ DW_TAG_subroutine_type ]
!971 = metadata !{metadata !922, metadata !857}
!972 = metadata !{i32 458798, i32 0, metadata !843, metadata !"iszero", metadata !"iszero", metadata !"_ZNK11ap_int_baseILi8ELb0ELb1EE6iszeroEv", metadata !20, i32 1576, metadata !943, i1 false, i1 false, i32 0, i32 0, null, i1 false} ; [ DW_TAG_subprogram ]
!973 = metadata !{i32 458798, i32 0, metadata !843, metadata !"is_zero", metadata !"is_zero", metadata !"_ZNK11ap_int_baseILi8ELb0ELb1EE7is_zeroEv", metadata !20, i32 1581, metadata !943, i1 false, i1 false, i32 0, i32 0, null, i1 false} ; [ DW_TAG_subprogram ]
!974 = metadata !{i32 458798, i32 0, metadata !843, metadata !"sign", metadata !"sign", metadata !"_ZNK11ap_int_baseILi8ELb0ELb1EE4signEv", metadata !20, i32 1586, metadata !943, i1 false, i1 false, i32 0, i32 0, null, i1 false} ; [ DW_TAG_subprogram ]
!975 = metadata !{i32 458798, i32 0, metadata !843, metadata !"clear", metadata !"clear", metadata !"_ZN11ap_int_baseILi8ELb0ELb1EE5clearEi", metadata !20, i32 1594, metadata !874, i1 false, i1 false, i32 0, i32 0, null, i1 false} ; [ DW_TAG_subprogram ]
!976 = metadata !{i32 458798, i32 0, metadata !843, metadata !"invert", metadata !"invert", metadata !"_ZN11ap_int_baseILi8ELb0ELb1EE6invertEi", metadata !20, i32 1600, metadata !874, i1 false, i1 false, i32 0, i32 0, null, i1 false} ; [ DW_TAG_subprogram ]
!977 = metadata !{i32 458798, i32 0, metadata !843, metadata !"test", metadata !"test", metadata !"_ZNK11ap_int_baseILi8ELb0ELb1EE4testEi", metadata !20, i32 1608, metadata !978, i1 false, i1 false, i32 0, i32 0, null, i1 false} ; [ DW_TAG_subprogram ]
!978 = metadata !{i32 458773, metadata !2, metadata !"", metadata !2, i32 0, i64 0, i64 0, i64 0, i32 0, null, metadata !979, i32 0, null} ; [ DW_TAG_subroutine_type ]
!979 = metadata !{metadata !39, metadata !941, metadata !59}
!980 = metadata !{i32 458798, i32 0, metadata !843, metadata !"set", metadata !"set", metadata !"_ZN11ap_int_baseILi8ELb0ELb1EE3setEi", metadata !20, i32 1614, metadata !874, i1 false, i1 false, i32 0, i32 0, null, i1 false} ; [ DW_TAG_subprogram ]
!981 = metadata !{i32 458798, i32 0, metadata !843, metadata !"set", metadata !"set", metadata !"_ZN11ap_int_baseILi8ELb0ELb1EE3setEib", metadata !20, i32 1620, metadata !982, i1 false, i1 false, i32 0, i32 0, null, i1 false} ; [ DW_TAG_subprogram ]
!982 = metadata !{i32 458773, metadata !2, metadata !"", metadata !2, i32 0, i64 0, i64 0, i64 0, i32 0, null, metadata !983, i32 0, null} ; [ DW_TAG_subroutine_type ]
!983 = metadata !{null, metadata !857, metadata !59, metadata !39}
!984 = metadata !{i32 458798, i32 0, metadata !843, metadata !"lrotate", metadata !"lrotate", metadata !"_ZN11ap_int_baseILi8ELb0ELb1EE7lrotateEi", metadata !20, i32 1627, metadata !874, i1 false, i1 false, i32 0, i32 0, null, i1 false} ; [ DW_TAG_subprogram ]
!985 = metadata !{i32 458798, i32 0, metadata !843, metadata !"rrotate", metadata !"rrotate", metadata !"_ZN11ap_int_baseILi8ELb0ELb1EE7rrotateEi", metadata !20, i32 1636, metadata !874, i1 false, i1 false, i32 0, i32 0, null, i1 false} ; [ DW_TAG_subprogram ]
!986 = metadata !{i32 458798, i32 0, metadata !843, metadata !"set_bit", metadata !"set_bit", metadata !"_ZN11ap_int_baseILi8ELb0ELb1EE7set_bitEib", metadata !20, i32 1644, metadata !982, i1 false, i1 false, i32 0, i32 0, null, i1 false} ; [ DW_TAG_subprogram ]
!987 = metadata !{i32 458798, i32 0, metadata !843, metadata !"get_bit", metadata !"get_bit", metadata !"_ZNK11ap_int_baseILi8ELb0ELb1EE7get_bitEi", metadata !20, i32 1649, metadata !978, i1 false, i1 false, i32 0, i32 0, null, i1 false} ; [ DW_TAG_subprogram ]
!988 = metadata !{i32 458798, i32 0, metadata !843, metadata !"b_not", metadata !"b_not", metadata !"_ZN11ap_int_baseILi8ELb0ELb1EE5b_notEv", metadata !20, i32 1654, metadata !855, i1 false, i1 false, i32 0, i32 0, null, i1 false} ; [ DW_TAG_subprogram ]
!989 = metadata !{i32 458798, i32 0, metadata !843, metadata !"countLeadingZeros", metadata !"countLeadingZeros", metadata !"_ZN11ap_int_baseILi8ELb0ELb1EE17countLeadingZerosEv", metadata !20, i32 1661, metadata !990, i1 false, i1 false, i32 0, i32 0, null, i1 false} ; [ DW_TAG_subprogram ]
!990 = metadata !{i32 458773, metadata !2, metadata !"", metadata !2, i32 0, i64 0, i64 0, i64 0, i32 0, null, metadata !991, i32 0, null} ; [ DW_TAG_subroutine_type ]
!991 = metadata !{metadata !59, metadata !857}
!992 = metadata !{i32 458798, i32 0, metadata !843, metadata !"operator++", metadata !"operator++", metadata !"_ZN11ap_int_baseILi8ELb0ELb1EEppEv", metadata !20, i32 1718, metadata !970, i1 false, i1 false, i32 0, i32 0, null, i1 false} ; [ DW_TAG_subprogram ]
!993 = metadata !{i32 458798, i32 0, metadata !843, metadata !"operator--", metadata !"operator--", metadata !"_ZN11ap_int_baseILi8ELb0ELb1EEmmEv", metadata !20, i32 1722, metadata !970, i1 false, i1 false, i32 0, i32 0, null, i1 false} ; [ DW_TAG_subprogram ]
!994 = metadata !{i32 458798, i32 0, metadata !843, metadata !"operator++", metadata !"operator++", metadata !"_ZN11ap_int_baseILi8ELb0ELb1EEppEi", metadata !20, i32 1730, metadata !995, i1 false, i1 false, i32 0, i32 0, null, i1 false} ; [ DW_TAG_subprogram ]
!995 = metadata !{i32 458773, metadata !2, metadata !"", metadata !2, i32 0, i64 0, i64 0, i64 0, i32 0, null, metadata !996, i32 0, null} ; [ DW_TAG_subroutine_type ]
!996 = metadata !{metadata !912, metadata !857, metadata !59}
!997 = metadata !{i32 458798, i32 0, metadata !843, metadata !"operator--", metadata !"operator--", metadata !"_ZN11ap_int_baseILi8ELb0ELb1EEmmEi", metadata !20, i32 1735, metadata !995, i1 false, i1 false, i32 0, i32 0, null, i1 false} ; [ DW_TAG_subprogram ]
!998 = metadata !{i32 458798, i32 0, metadata !843, metadata !"operator+", metadata !"operator+", metadata !"_ZNK11ap_int_baseILi8ELb0ELb1EEpsEv", metadata !20, i32 1744, metadata !999, i1 false, i1 false, i32 0, i32 0, null, i1 false} ; [ DW_TAG_subprogram ]
!999 = metadata !{i32 458773, metadata !2, metadata !"", metadata !2, i32 0, i64 0, i64 0, i64 0, i32 0, null, metadata !1000, i32 0, null} ; [ DW_TAG_subroutine_type ]
!1000 = metadata !{metadata !843, metadata !941}
!1001 = metadata !{i32 458798, i32 0, metadata !843, metadata !"operator!", metadata !"operator!", metadata !"_ZNK11ap_int_baseILi8ELb0ELb1EEntEv", metadata !20, i32 1750, metadata !943, i1 false, i1 false, i32 0, i32 0, null, i1 false} ; [ DW_TAG_subprogram ]
!1002 = metadata !{i32 458798, i32 0, metadata !843, metadata !"range", metadata !"range", metadata !"_ZN11ap_int_baseILi8ELb0ELb1EE5rangeEii", metadata !20, i32 1877, metadata !1003, i1 false, i1 false, i32 0, i32 0, null, i1 false} ; [ DW_TAG_subprogram ]
!1003 = metadata !{i32 458773, metadata !2, metadata !"", metadata !2, i32 0, i64 0, i64 0, i64 0, i32 0, null, metadata !1004, i32 0, null} ; [ DW_TAG_subroutine_type ]
!1004 = metadata !{metadata !1005, metadata !857, metadata !59, metadata !59}
!1005 = metadata !{i32 458771, metadata !2, metadata !"ap_range_ref<8,false>", metadata !20, i32 872, i64 128, i64 64, i64 0, i32 0, null, metadata !1006, i32 0, null} ; [ DW_TAG_structure_type ]
!1006 = metadata !{metadata !1007, metadata !1008, metadata !1009, metadata !1010, metadata !1016, metadata !1020, metadata !1024, metadata !1027, metadata !1031, metadata !1034, metadata !1038, metadata !1041, metadata !1042, metadata !1045, metadata !1048, metadata !1051, metadata !1054, metadata !1057, metadata !1060, metadata !1061}
!1007 = metadata !{i32 458765, metadata !1005, metadata !"d_bv", metadata !20, i32 873, i64 64, i64 64, i64 0, i32 0, metadata !922} ; [ DW_TAG_member ]
!1008 = metadata !{i32 458765, metadata !1005, metadata !"l_index", metadata !20, i32 874, i64 32, i64 32, i64 64, i32 0, metadata !59} ; [ DW_TAG_member ]
!1009 = metadata !{i32 458765, metadata !1005, metadata !"h_index", metadata !20, i32 875, i64 32, i64 32, i64 96, i32 0, metadata !59} ; [ DW_TAG_member ]
!1010 = metadata !{i32 458798, i32 0, metadata !1005, metadata !"ap_range_ref", metadata !"ap_range_ref", metadata !"", metadata !20, i32 878, metadata !1011, i1 false, i1 false, i32 0, i32 0, null, i1 false} ; [ DW_TAG_subprogram ]
!1011 = metadata !{i32 458773, metadata !2, metadata !"", metadata !2, i32 0, i64 0, i64 0, i64 0, i32 0, null, metadata !1012, i32 0, null} ; [ DW_TAG_subroutine_type ]
!1012 = metadata !{null, metadata !1013, metadata !1014}
!1013 = metadata !{i32 458767, metadata !2, metadata !"", metadata !2, i32 0, i64 64, i64 64, i64 0, i32 64, metadata !1005} ; [ DW_TAG_pointer_type ]
!1014 = metadata !{i32 458768, metadata !2, metadata !"", metadata !2, i32 0, i64 64, i64 64, i64 0, i32 0, metadata !1015} ; [ DW_TAG_reference_type ]
!1015 = metadata !{i32 458790, metadata !2, metadata !"", metadata !2, i32 0, i64 128, i64 64, i64 0, i32 0, metadata !1005} ; [ DW_TAG_const_type ]
!1016 = metadata !{i32 458798, i32 0, metadata !1005, metadata !"ap_range_ref", metadata !"ap_range_ref", metadata !"", metadata !20, i32 881, metadata !1017, i1 false, i1 false, i32 0, i32 0, null, i1 false} ; [ DW_TAG_subprogram ]
!1017 = metadata !{i32 458773, metadata !2, metadata !"", metadata !2, i32 0, i64 0, i64 0, i64 0, i32 0, null, metadata !1018, i32 0, null} ; [ DW_TAG_subroutine_type ]
!1018 = metadata !{null, metadata !1013, metadata !1019, metadata !59, metadata !59}
!1019 = metadata !{i32 458767, metadata !2, metadata !"", metadata !2, i32 0, i64 64, i64 64, i64 0, i32 0, metadata !843} ; [ DW_TAG_pointer_type ]
!1020 = metadata !{i32 458798, i32 0, metadata !1005, metadata !"operator ap_int_base<8, false, true>", metadata !"operator ap_int_base<8, false, true>", metadata !"_ZNK12ap_range_refILi8ELb0EEcv11ap_int_baseILi8ELb0ELb1EEEv", metadata !20, i32 886, metadata !1021, i1 false, i1 false, i32 0, i32 0, null, i1 false} ; [ DW_TAG_subprogram ]
!1021 = metadata !{i32 458773, metadata !2, metadata !"", metadata !2, i32 0, i64 0, i64 0, i64 0, i32 0, null, metadata !1022, i32 0, null} ; [ DW_TAG_subroutine_type ]
!1022 = metadata !{metadata !843, metadata !1023}
!1023 = metadata !{i32 458767, metadata !2, metadata !"", metadata !2, i32 0, i64 64, i64 64, i64 0, i32 64, metadata !1015} ; [ DW_TAG_pointer_type ]
!1024 = metadata !{i32 458798, i32 0, metadata !1005, metadata !"operator long long unsigned int", metadata !"operator long long unsigned int", metadata !"_ZNK12ap_range_refILi8ELb0EEcvyEv", metadata !20, i32 892, metadata !1025, i1 false, i1 false, i32 0, i32 0, null, i1 false} ; [ DW_TAG_subprogram ]
!1025 = metadata !{i32 458773, metadata !2, metadata !"", metadata !2, i32 0, i64 0, i64 0, i64 0, i32 0, null, metadata !1026, i32 0, null} ; [ DW_TAG_subroutine_type ]
!1026 = metadata !{metadata !79, metadata !1023}
!1027 = metadata !{i32 458798, i32 0, metadata !1005, metadata !"operator=", metadata !"operator=", metadata !"_ZN12ap_range_refILi8ELb0EEaSEy", metadata !20, i32 896, metadata !1028, i1 false, i1 false, i32 0, i32 0, null, i1 false} ; [ DW_TAG_subprogram ]
!1028 = metadata !{i32 458773, metadata !2, metadata !"", metadata !2, i32 0, i64 0, i64 0, i64 0, i32 0, null, metadata !1029, i32 0, null} ; [ DW_TAG_subroutine_type ]
!1029 = metadata !{metadata !1030, metadata !1013, metadata !79}
!1030 = metadata !{i32 458768, metadata !2, metadata !"ap_range_ref<8,false>", metadata !2, i32 0, i64 64, i64 64, i64 0, i32 0, metadata !1005} ; [ DW_TAG_reference_type ]
!1031 = metadata !{i32 458798, i32 0, metadata !1005, metadata !"operator=", metadata !"operator=", metadata !"_ZN12ap_range_refILi8ELb0EEaSERKS0_", metadata !20, i32 914, metadata !1032, i1 false, i1 false, i32 0, i32 0, null, i1 false} ; [ DW_TAG_subprogram ]
!1032 = metadata !{i32 458773, metadata !2, metadata !"", metadata !2, i32 0, i64 0, i64 0, i64 0, i32 0, null, metadata !1033, i32 0, null} ; [ DW_TAG_subroutine_type ]
!1033 = metadata !{metadata !1030, metadata !1013, metadata !1014}
!1034 = metadata !{i32 458798, i32 0, metadata !1005, metadata !"operator,", metadata !"operator,", metadata !"_ZN12ap_range_refILi8ELb0EEcmER11ap_int_baseILi8ELb0ELb1EE", metadata !20, i32 969, metadata !1035, i1 false, i1 false, i32 0, i32 0, null, i1 false} ; [ DW_TAG_subprogram ]
!1035 = metadata !{i32 458773, metadata !2, metadata !"", metadata !2, i32 0, i64 0, i64 0, i64 0, i32 0, null, metadata !1036, i32 0, null} ; [ DW_TAG_subroutine_type ]
!1036 = metadata !{metadata !1037, metadata !1013, metadata !922}
!1037 = metadata !{i32 458771, metadata !2, metadata !"ap_concat_ref<8,ap_range_ref<8, false>,8,ap_int_base<8, false, true> >", metadata !20, i32 635, i64 0, i64 0, i64 0, i32 4, null, null, i32 0, null} ; [ DW_TAG_structure_type ]
!1038 = metadata !{i32 458798, i32 0, metadata !1005, metadata !"length", metadata !"length", metadata !"_ZNK12ap_range_refILi8ELb0EE6lengthEv", metadata !20, i32 1078, metadata !1039, i1 false, i1 false, i32 0, i32 0, null, i1 false} ; [ DW_TAG_subprogram ]
!1039 = metadata !{i32 458773, metadata !2, metadata !"", metadata !2, i32 0, i64 0, i64 0, i64 0, i32 0, null, metadata !1040, i32 0, null} ; [ DW_TAG_subroutine_type ]
!1040 = metadata !{metadata !59, metadata !1023}
!1041 = metadata !{i32 458798, i32 0, metadata !1005, metadata !"to_int", metadata !"to_int", metadata !"_ZNK12ap_range_refILi8ELb0EE6to_intEv", metadata !20, i32 1082, metadata !1039, i1 false, i1 false, i32 0, i32 0, null, i1 false} ; [ DW_TAG_subprogram ]
!1042 = metadata !{i32 458798, i32 0, metadata !1005, metadata !"to_uint", metadata !"to_uint", metadata !"_ZNK12ap_range_refILi8ELb0EE7to_uintEv", metadata !20, i32 1085, metadata !1043, i1 false, i1 false, i32 0, i32 0, null, i1 false} ; [ DW_TAG_subprogram ]
!1043 = metadata !{i32 458773, metadata !2, metadata !"", metadata !2, i32 0, i64 0, i64 0, i64 0, i32 0, null, metadata !1044, i32 0, null} ; [ DW_TAG_subroutine_type ]
!1044 = metadata !{metadata !63, metadata !1023}
!1045 = metadata !{i32 458798, i32 0, metadata !1005, metadata !"to_long", metadata !"to_long", metadata !"_ZNK12ap_range_refILi8ELb0EE7to_longEv", metadata !20, i32 1088, metadata !1046, i1 false, i1 false, i32 0, i32 0, null, i1 false} ; [ DW_TAG_subprogram ]
!1046 = metadata !{i32 458773, metadata !2, metadata !"", metadata !2, i32 0, i64 0, i64 0, i64 0, i32 0, null, metadata !1047, i32 0, null} ; [ DW_TAG_subroutine_type ]
!1047 = metadata !{metadata !67, metadata !1023}
!1048 = metadata !{i32 458798, i32 0, metadata !1005, metadata !"to_ulong", metadata !"to_ulong", metadata !"_ZNK12ap_range_refILi8ELb0EE8to_ulongEv", metadata !20, i32 1091, metadata !1049, i1 false, i1 false, i32 0, i32 0, null, i1 false} ; [ DW_TAG_subprogram ]
!1049 = metadata !{i32 458773, metadata !2, metadata !"", metadata !2, i32 0, i64 0, i64 0, i64 0, i32 0, null, metadata !1050, i32 0, null} ; [ DW_TAG_subroutine_type ]
!1050 = metadata !{metadata !71, metadata !1023}
!1051 = metadata !{i32 458798, i32 0, metadata !1005, metadata !"to_int64", metadata !"to_int64", metadata !"_ZNK12ap_range_refILi8ELb0EE8to_int64Ev", metadata !20, i32 1094, metadata !1052, i1 false, i1 false, i32 0, i32 0, null, i1 false} ; [ DW_TAG_subprogram ]
!1052 = metadata !{i32 458773, metadata !2, metadata !"", metadata !2, i32 0, i64 0, i64 0, i64 0, i32 0, null, metadata !1053, i32 0, null} ; [ DW_TAG_subroutine_type ]
!1053 = metadata !{metadata !156, metadata !1023}
!1054 = metadata !{i32 458798, i32 0, metadata !1005, metadata !"to_uint64", metadata !"to_uint64", metadata !"_ZNK12ap_range_refILi8ELb0EE9to_uint64Ev", metadata !20, i32 1097, metadata !1055, i1 false, i1 false, i32 0, i32 0, null, i1 false} ; [ DW_TAG_subprogram ]
!1055 = metadata !{i32 458773, metadata !2, metadata !"", metadata !2, i32 0, i64 0, i64 0, i64 0, i32 0, null, metadata !1056, i32 0, null} ; [ DW_TAG_subroutine_type ]
!1056 = metadata !{metadata !135, metadata !1023}
!1057 = metadata !{i32 458798, i32 0, metadata !1005, metadata !"and_reduce", metadata !"and_reduce", metadata !"_ZNK12ap_range_refILi8ELb0EE10and_reduceEv", metadata !20, i32 1100, metadata !1058, i1 false, i1 false, i32 0, i32 0, null, i1 false} ; [ DW_TAG_subprogram ]
!1058 = metadata !{i32 458773, metadata !2, metadata !"", metadata !2, i32 0, i64 0, i64 0, i64 0, i32 0, null, metadata !1059, i32 0, null} ; [ DW_TAG_subroutine_type ]
!1059 = metadata !{metadata !39, metadata !1023}
!1060 = metadata !{i32 458798, i32 0, metadata !1005, metadata !"or_reduce", metadata !"or_reduce", metadata !"_ZNK12ap_range_refILi8ELb0EE9or_reduceEv", metadata !20, i32 1103, metadata !1058, i1 false, i1 false, i32 0, i32 0, null, i1 false} ; [ DW_TAG_subprogram ]
!1061 = metadata !{i32 458798, i32 0, metadata !1005, metadata !"xor_reduce", metadata !"xor_reduce", metadata !"_ZNK12ap_range_refILi8ELb0EE10xor_reduceEv", metadata !20, i32 1106, metadata !1058, i1 false, i1 false, i32 0, i32 0, null, i1 false} ; [ DW_TAG_subprogram ]
!1062 = metadata !{i32 458798, i32 0, metadata !843, metadata !"operator()", metadata !"operator()", metadata !"_ZN11ap_int_baseILi8ELb0ELb1EEclEii", metadata !20, i32 1883, metadata !1003, i1 false, i1 false, i32 0, i32 0, null, i1 false} ; [ DW_TAG_subprogram ]
!1063 = metadata !{i32 458798, i32 0, metadata !843, metadata !"range", metadata !"range", metadata !"_ZNK11ap_int_baseILi8ELb0ELb1EE5rangeEii", metadata !20, i32 1889, metadata !1064, i1 false, i1 false, i32 0, i32 0, null, i1 false} ; [ DW_TAG_subprogram ]
!1064 = metadata !{i32 458773, metadata !2, metadata !"", metadata !2, i32 0, i64 0, i64 0, i64 0, i32 0, null, metadata !1065, i32 0, null} ; [ DW_TAG_subroutine_type ]
!1065 = metadata !{metadata !1005, metadata !941, metadata !59, metadata !59}
!1066 = metadata !{i32 458798, i32 0, metadata !843, metadata !"operator()", metadata !"operator()", metadata !"_ZNK11ap_int_baseILi8ELb0ELb1EEclEii", metadata !20, i32 1895, metadata !1064, i1 false, i1 false, i32 0, i32 0, null, i1 false} ; [ DW_TAG_subprogram ]
!1067 = metadata !{i32 458798, i32 0, metadata !843, metadata !"operator[]", metadata !"operator[]", metadata !"_ZN11ap_int_baseILi8ELb0ELb1EEixEi", metadata !20, i32 1914, metadata !1068, i1 false, i1 false, i32 0, i32 0, null, i1 false} ; [ DW_TAG_subprogram ]
!1068 = metadata !{i32 458773, metadata !2, metadata !"", metadata !2, i32 0, i64 0, i64 0, i64 0, i32 0, null, metadata !1069, i32 0, null} ; [ DW_TAG_subroutine_type ]
!1069 = metadata !{metadata !1070, metadata !857, metadata !59}
!1070 = metadata !{i32 458771, metadata !2, metadata !"ap_bit_ref<8,false>", metadata !20, i32 1116, i64 0, i64 0, i64 0, i32 4, null, null, i32 0, null} ; [ DW_TAG_structure_type ]
!1071 = metadata !{i32 458798, i32 0, metadata !843, metadata !"operator[]", metadata !"operator[]", metadata !"_ZNK11ap_int_baseILi8ELb0ELb1EEixEi", metadata !20, i32 1928, metadata !978, i1 false, i1 false, i32 0, i32 0, null, i1 false} ; [ DW_TAG_subprogram ]
!1072 = metadata !{i32 458798, i32 0, metadata !843, metadata !"bit", metadata !"bit", metadata !"_ZN11ap_int_baseILi8ELb0ELb1EE3bitEi", metadata !20, i32 1942, metadata !1068, i1 false, i1 false, i32 0, i32 0, null, i1 false} ; [ DW_TAG_subprogram ]
!1073 = metadata !{i32 458798, i32 0, metadata !843, metadata !"bit", metadata !"bit", metadata !"_ZNK11ap_int_baseILi8ELb0ELb1EE3bitEi", metadata !20, i32 1956, metadata !978, i1 false, i1 false, i32 0, i32 0, null, i1 false} ; [ DW_TAG_subprogram ]
!1074 = metadata !{i32 458798, i32 0, metadata !843, metadata !"and_reduce", metadata !"and_reduce", metadata !"_ZN11ap_int_baseILi8ELb0ELb1EE10and_reduceEv", metadata !20, i32 2136, metadata !1075, i1 false, i1 false, i32 0, i32 0, null, i1 false} ; [ DW_TAG_subprogram ]
!1075 = metadata !{i32 458773, metadata !2, metadata !"", metadata !2, i32 0, i64 0, i64 0, i64 0, i32 0, null, metadata !1076, i32 0, null} ; [ DW_TAG_subroutine_type ]
!1076 = metadata !{metadata !39, metadata !857}
!1077 = metadata !{i32 458798, i32 0, metadata !843, metadata !"nand_reduce", metadata !"nand_reduce", metadata !"_ZN11ap_int_baseILi8ELb0ELb1EE11nand_reduceEv", metadata !20, i32 2139, metadata !1075, i1 false, i1 false, i32 0, i32 0, null, i1 false} ; [ DW_TAG_subprogram ]
!1078 = metadata !{i32 458798, i32 0, metadata !843, metadata !"or_reduce", metadata !"or_reduce", metadata !"_ZN11ap_int_baseILi8ELb0ELb1EE9or_reduceEv", metadata !20, i32 2142, metadata !1075, i1 false, i1 false, i32 0, i32 0, null, i1 false} ; [ DW_TAG_subprogram ]
!1079 = metadata !{i32 458798, i32 0, metadata !843, metadata !"nor_reduce", metadata !"nor_reduce", metadata !"_ZN11ap_int_baseILi8ELb0ELb1EE10nor_reduceEv", metadata !20, i32 2145, metadata !1075, i1 false, i1 false, i32 0, i32 0, null, i1 false} ; [ DW_TAG_subprogram ]
!1080 = metadata !{i32 458798, i32 0, metadata !843, metadata !"xor_reduce", metadata !"xor_reduce", metadata !"_ZN11ap_int_baseILi8ELb0ELb1EE10xor_reduceEv", metadata !20, i32 2148, metadata !1075, i1 false, i1 false, i32 0, i32 0, null, i1 false} ; [ DW_TAG_subprogram ]
!1081 = metadata !{i32 458798, i32 0, metadata !843, metadata !"xnor_reduce", metadata !"xnor_reduce", metadata !"_ZN11ap_int_baseILi8ELb0ELb1EE11xnor_reduceEv", metadata !20, i32 2151, metadata !1075, i1 false, i1 false, i32 0, i32 0, null, i1 false} ; [ DW_TAG_subprogram ]
!1082 = metadata !{i32 458798, i32 0, metadata !843, metadata !"and_reduce", metadata !"and_reduce", metadata !"_ZNK11ap_int_baseILi8ELb0ELb1EE10and_reduceEv", metadata !20, i32 2155, metadata !943, i1 false, i1 false, i32 0, i32 0, null, i1 false} ; [ DW_TAG_subprogram ]
!1083 = metadata !{i32 458798, i32 0, metadata !843, metadata !"nand_reduce", metadata !"nand_reduce", metadata !"_ZNK11ap_int_baseILi8ELb0ELb1EE11nand_reduceEv", metadata !20, i32 2158, metadata !943, i1 false, i1 false, i32 0, i32 0, null, i1 false} ; [ DW_TAG_subprogram ]
!1084 = metadata !{i32 458798, i32 0, metadata !843, metadata !"or_reduce", metadata !"or_reduce", metadata !"_ZNK11ap_int_baseILi8ELb0ELb1EE9or_reduceEv", metadata !20, i32 2161, metadata !943, i1 false, i1 false, i32 0, i32 0, null, i1 false} ; [ DW_TAG_subprogram ]
!1085 = metadata !{i32 458798, i32 0, metadata !843, metadata !"nor_reduce", metadata !"nor_reduce", metadata !"_ZNK11ap_int_baseILi8ELb0ELb1EE10nor_reduceEv", metadata !20, i32 2164, metadata !943, i1 false, i1 false, i32 0, i32 0, null, i1 false} ; [ DW_TAG_subprogram ]
!1086 = metadata !{i32 458798, i32 0, metadata !843, metadata !"xor_reduce", metadata !"xor_reduce", metadata !"_ZNK11ap_int_baseILi8ELb0ELb1EE10xor_reduceEv", metadata !20, i32 2167, metadata !943, i1 false, i1 false, i32 0, i32 0, null, i1 false} ; [ DW_TAG_subprogram ]
!1087 = metadata !{i32 458798, i32 0, metadata !843, metadata !"xnor_reduce", metadata !"xnor_reduce", metadata !"_ZNK11ap_int_baseILi8ELb0ELb1EE11xnor_reduceEv", metadata !20, i32 2170, metadata !943, i1 false, i1 false, i32 0, i32 0, null, i1 false} ; [ DW_TAG_subprogram ]
!1088 = metadata !{i32 458798, i32 0, metadata !843, metadata !"to_string", metadata !"to_string", metadata !"_ZNK11ap_int_baseILi8ELb0ELb1EE9to_stringEPci8BaseModeb", metadata !20, i32 2177, metadata !1089, i1 false, i1 false, i32 0, i32 0, null, i1 false} ; [ DW_TAG_subprogram ]
!1089 = metadata !{i32 458773, metadata !2, metadata !"", metadata !2, i32 0, i64 0, i64 0, i64 0, i32 0, null, metadata !1090, i32 0, null} ; [ DW_TAG_subroutine_type ]
!1090 = metadata !{null, metadata !941, metadata !232, metadata !59, metadata !233, metadata !39}
!1091 = metadata !{i32 458798, i32 0, metadata !843, metadata !"to_string", metadata !"to_string", metadata !"_ZNK11ap_int_baseILi8ELb0ELb1EE9to_stringE8BaseModeb", metadata !20, i32 2204, metadata !1092, i1 false, i1 false, i32 0, i32 0, null, i1 false} ; [ DW_TAG_subprogram ]
!1092 = metadata !{i32 458773, metadata !2, metadata !"", metadata !2, i32 0, i64 0, i64 0, i64 0, i32 0, null, metadata !1093, i32 0, null} ; [ DW_TAG_subroutine_type ]
!1093 = metadata !{metadata !232, metadata !941, metadata !233, metadata !39}
!1094 = metadata !{i32 458798, i32 0, metadata !843, metadata !"to_string", metadata !"to_string", metadata !"_ZNK11ap_int_baseILi8ELb0ELb1EE9to_stringEab", metadata !20, i32 2208, metadata !1095, i1 false, i1 false, i32 0, i32 0, null, i1 false} ; [ DW_TAG_subprogram ]
!1095 = metadata !{i32 458773, metadata !2, metadata !"", metadata !2, i32 0, i64 0, i64 0, i64 0, i32 0, null, metadata !1096, i32 0, null} ; [ DW_TAG_subroutine_type ]
!1096 = metadata !{metadata !232, metadata !941, metadata !43, metadata !39}
!1097 = metadata !{i32 458798, i32 0, metadata !840, metadata !"ap_uint", metadata !"ap_uint", metadata !"", metadata !16, i32 137, metadata !1098, i1 false, i1 false, i32 0, i32 0, null, i1 false} ; [ DW_TAG_subprogram ]
!1098 = metadata !{i32 458773, metadata !2, metadata !"", metadata !2, i32 0, i64 0, i64 0, i64 0, i32 0, null, metadata !1099, i32 0, null} ; [ DW_TAG_subroutine_type ]
!1099 = metadata !{null, metadata !1100}
